
/home/oslab/xs-env/nexus-am/apps/coremark/build/coremark-riscv64-nutshell.elf:     file format elf64-littleriscv


Disassembly of section .text:

0000000080000000 <_start>:
    80000000:	00000413          	li	s0,0
    80000004:	0000f117          	auipc	sp,0xf
    80000008:	ffc10113          	addi	sp,sp,-4 # 8000f000 <_end>
    8000000c:	06e040ef          	jal	ra,8000407a <_trm_init>

0000000080000010 <get_seed_32>:
    80000010:	4795                	li	a5,5
    80000012:	04a7e763          	bltu	a5,a0,80000060 <get_seed_32+0x50>
    80000016:	00005717          	auipc	a4,0x5
    8000001a:	15a70713          	addi	a4,a4,346 # 80005170 <uptime+0x22>
    8000001e:	050a                	slli	a0,a0,0x2
    80000020:	00e502b3          	add	t0,a0,a4
    80000024:	0002a303          	lw	t1,0(t0)
    80000028:	00e303b3          	add	t2,t1,a4
    8000002c:	8382                	jr	t2
    8000002e:	00006517          	auipc	a0,0x6
    80000032:	13a52503          	lw	a0,314(a0) # 80006168 <seed5_volatile>
    80000036:	8082                	ret
    80000038:	00006517          	auipc	a0,0x6
    8000003c:	13852503          	lw	a0,312(a0) # 80006170 <seed1_volatile>
    80000040:	8082                	ret
    80000042:	00006517          	auipc	a0,0x6
    80000046:	12a52503          	lw	a0,298(a0) # 8000616c <seed2_volatile>
    8000004a:	8082                	ret
    8000004c:	00006517          	auipc	a0,0x6
    80000050:	93452503          	lw	a0,-1740(a0) # 80005980 <seed3_volatile>
    80000054:	8082                	ret
    80000056:	00006517          	auipc	a0,0x6
    8000005a:	92652503          	lw	a0,-1754(a0) # 8000597c <seed4_volatile>
    8000005e:	8082                	ret
    80000060:	4501                	li	a0,0
    80000062:	8082                	ret

0000000080000064 <crcu8>:
    80000064:	00b546b3          	xor	a3,a0,a1
    80000068:	0016f293          	andi	t0,a3,1
    8000006c:	00155713          	srli	a4,a0,0x1
    80000070:	0015d613          	srli	a2,a1,0x1
    80000074:	00028b63          	beqz	t0,8000008a <crcu8+0x26>
    80000078:	7369                	lui	t1,0xffffa
    8000007a:	00130393          	addi	t2,t1,1 # ffffffffffffa001 <_pmem_end+0xffffffff77ffa001>
    8000007e:	007647b3          	xor	a5,a2,t2
    80000082:	03079593          	slli	a1,a5,0x30
    80000086:	0305d613          	srli	a2,a1,0x30
    8000008a:	00c74833          	xor	a6,a4,a2
    8000008e:	00187893          	andi	a7,a6,1
    80000092:	00255e13          	srli	t3,a0,0x2
    80000096:	00165293          	srli	t0,a2,0x1
    8000009a:	00088b63          	beqz	a7,800000b0 <crcu8+0x4c>
    8000009e:	7ee9                	lui	t4,0xffffa
    800000a0:	001e8f13          	addi	t5,t4,1 # ffffffffffffa001 <_pmem_end+0xffffffff77ffa001>
    800000a4:	01e2cfb3          	xor	t6,t0,t5
    800000a8:	030f9693          	slli	a3,t6,0x30
    800000ac:	0306d293          	srli	t0,a3,0x30
    800000b0:	005e4733          	xor	a4,t3,t0
    800000b4:	00177313          	andi	t1,a4,1
    800000b8:	00355393          	srli	t2,a0,0x3
    800000bc:	0012d893          	srli	a7,t0,0x1
    800000c0:	00030b63          	beqz	t1,800000d6 <crcu8+0x72>
    800000c4:	75e9                	lui	a1,0xffffa
    800000c6:	00158613          	addi	a2,a1,1 # ffffffffffffa001 <_pmem_end+0xffffffff77ffa001>
    800000ca:	00c8c7b3          	xor	a5,a7,a2
    800000ce:	03079813          	slli	a6,a5,0x30
    800000d2:	03085893          	srli	a7,a6,0x30
    800000d6:	0113ce33          	xor	t3,t2,a7
    800000da:	001e7e93          	andi	t4,t3,1
    800000de:	00455f13          	srli	t5,a0,0x4
    800000e2:	0018d313          	srli	t1,a7,0x1
    800000e6:	000e8b63          	beqz	t4,800000fc <crcu8+0x98>
    800000ea:	7fe9                	lui	t6,0xffffa
    800000ec:	001f8693          	addi	a3,t6,1 # ffffffffffffa001 <_pmem_end+0xffffffff77ffa001>
    800000f0:	00d342b3          	xor	t0,t1,a3
    800000f4:	03029713          	slli	a4,t0,0x30
    800000f8:	03075313          	srli	t1,a4,0x30
    800000fc:	006f43b3          	xor	t2,t5,t1
    80000100:	0013f593          	andi	a1,t2,1
    80000104:	00555613          	srli	a2,a0,0x5
    80000108:	00135e93          	srli	t4,t1,0x1
    8000010c:	c991                	beqz	a1,80000120 <crcu8+0xbc>
    8000010e:	7869                	lui	a6,0xffffa
    80000110:	00180893          	addi	a7,a6,1 # ffffffffffffa001 <_pmem_end+0xffffffff77ffa001>
    80000114:	011ec7b3          	xor	a5,t4,a7
    80000118:	03079e13          	slli	t3,a5,0x30
    8000011c:	030e5e93          	srli	t4,t3,0x30
    80000120:	01d64f33          	xor	t5,a2,t4
    80000124:	001f7f93          	andi	t6,t5,1
    80000128:	00655693          	srli	a3,a0,0x6
    8000012c:	001ed593          	srli	a1,t4,0x1
    80000130:	000f8b63          	beqz	t6,80000146 <crcu8+0xe2>
    80000134:	72e9                	lui	t0,0xffffa
    80000136:	00128713          	addi	a4,t0,1 # ffffffffffffa001 <_pmem_end+0xffffffff77ffa001>
    8000013a:	00e5c333          	xor	t1,a1,a4
    8000013e:	03031393          	slli	t2,t1,0x30
    80000142:	0303d593          	srli	a1,t2,0x30
    80000146:	00b6c633          	xor	a2,a3,a1
    8000014a:	00167813          	andi	a6,a2,1
    8000014e:	00755893          	srli	a7,a0,0x7
    80000152:	0015df13          	srli	t5,a1,0x1
    80000156:	00080b63          	beqz	a6,8000016c <crcu8+0x108>
    8000015a:	7569                	lui	a0,0xffffa
    8000015c:	00150e13          	addi	t3,a0,1 # ffffffffffffa001 <_pmem_end+0xffffffff77ffa001>
    80000160:	01cf47b3          	xor	a5,t5,t3
    80000164:	03079e93          	slli	t4,a5,0x30
    80000168:	030edf13          	srli	t5,t4,0x30
    8000016c:	001f7f93          	andi	t6,t5,1
    80000170:	001f5513          	srli	a0,t5,0x1
    80000174:	011f8b63          	beq	t6,a7,8000018a <crcu8+0x126>
    80000178:	76e9                	lui	a3,0xffffa
    8000017a:	00168293          	addi	t0,a3,1 # ffffffffffffa001 <_pmem_end+0xffffffff77ffa001>
    8000017e:	00554733          	xor	a4,a0,t0
    80000182:	03071313          	slli	t1,a4,0x30
    80000186:	03035513          	srli	a0,t1,0x30
    8000018a:	8082                	ret

000000008000018c <crcu16>:
    8000018c:	0ff57793          	zext.b	a5,a0
    80000190:	00b7c6b3          	xor	a3,a5,a1
    80000194:	0016f293          	andi	t0,a3,1
    80000198:	872a                	mv	a4,a0
    8000019a:	0017d613          	srli	a2,a5,0x1
    8000019e:	0015d813          	srli	a6,a1,0x1
    800001a2:	00028b63          	beqz	t0,800001b8 <crcu16+0x2c>
    800001a6:	7369                	lui	t1,0xffffa
    800001a8:	00130393          	addi	t2,t1,1 # ffffffffffffa001 <_pmem_end+0xffffffff77ffa001>
    800001ac:	00784533          	xor	a0,a6,t2
    800001b0:	03051593          	slli	a1,a0,0x30
    800001b4:	0305d813          	srli	a6,a1,0x30
    800001b8:	010648b3          	xor	a7,a2,a6
    800001bc:	0018fe13          	andi	t3,a7,1
    800001c0:	0027de93          	srli	t4,a5,0x2
    800001c4:	00185313          	srli	t1,a6,0x1
    800001c8:	000e0b63          	beqz	t3,800001de <crcu16+0x52>
    800001cc:	7f69                	lui	t5,0xffffa
    800001ce:	001f0f93          	addi	t6,t5,1 # ffffffffffffa001 <_pmem_end+0xffffffff77ffa001>
    800001d2:	01f346b3          	xor	a3,t1,t6
    800001d6:	03069293          	slli	t0,a3,0x30
    800001da:	0302d313          	srli	t1,t0,0x30
    800001de:	006ec633          	xor	a2,t4,t1
    800001e2:	00167393          	andi	t2,a2,1
    800001e6:	0037d593          	srli	a1,a5,0x3
    800001ea:	00135e93          	srli	t4,t1,0x1
    800001ee:	00038b63          	beqz	t2,80000204 <crcu16+0x78>
    800001f2:	7869                	lui	a6,0xffffa
    800001f4:	00180893          	addi	a7,a6,1 # ffffffffffffa001 <_pmem_end+0xffffffff77ffa001>
    800001f8:	011ec533          	xor	a0,t4,a7
    800001fc:	03051e13          	slli	t3,a0,0x30
    80000200:	030e5e93          	srli	t4,t3,0x30
    80000204:	01d5cf33          	xor	t5,a1,t4
    80000208:	001f7f93          	andi	t6,t5,1
    8000020c:	0047d693          	srli	a3,a5,0x4
    80000210:	001ed593          	srli	a1,t4,0x1
    80000214:	000f8b63          	beqz	t6,8000022a <crcu16+0x9e>
    80000218:	72e9                	lui	t0,0xffffa
    8000021a:	00128313          	addi	t1,t0,1 # ffffffffffffa001 <_pmem_end+0xffffffff77ffa001>
    8000021e:	0065c633          	xor	a2,a1,t1
    80000222:	03061393          	slli	t2,a2,0x30
    80000226:	0303d593          	srli	a1,t2,0x30
    8000022a:	00b6c833          	xor	a6,a3,a1
    8000022e:	00187893          	andi	a7,a6,1
    80000232:	0057de13          	srli	t3,a5,0x5
    80000236:	0015d293          	srli	t0,a1,0x1
    8000023a:	00088b63          	beqz	a7,80000250 <crcu16+0xc4>
    8000023e:	7ee9                	lui	t4,0xffffa
    80000240:	001e8f13          	addi	t5,t4,1 # ffffffffffffa001 <_pmem_end+0xffffffff77ffa001>
    80000244:	01e2c533          	xor	a0,t0,t5
    80000248:	03051f93          	slli	t6,a0,0x30
    8000024c:	030fd293          	srli	t0,t6,0x30
    80000250:	005e46b3          	xor	a3,t3,t0
    80000254:	0016f313          	andi	t1,a3,1
    80000258:	0067d393          	srli	t2,a5,0x6
    8000025c:	0012de13          	srli	t3,t0,0x1
    80000260:	00030b63          	beqz	t1,80000276 <crcu16+0xea>
    80000264:	7669                	lui	a2,0xffffa
    80000266:	00160593          	addi	a1,a2,1 # ffffffffffffa001 <_pmem_end+0xffffffff77ffa001>
    8000026a:	00be4833          	xor	a6,t3,a1
    8000026e:	03081893          	slli	a7,a6,0x30
    80000272:	0308de13          	srli	t3,a7,0x30
    80000276:	01c3ceb3          	xor	t4,t2,t3
    8000027a:	001eff13          	andi	t5,t4,1
    8000027e:	839d                	srli	a5,a5,0x7
    80000280:	001e5313          	srli	t1,t3,0x1
    80000284:	000f0b63          	beqz	t5,8000029a <crcu16+0x10e>
    80000288:	7fe9                	lui	t6,0xffffa
    8000028a:	001f8293          	addi	t0,t6,1 # ffffffffffffa001 <_pmem_end+0xffffffff77ffa001>
    8000028e:	00534533          	xor	a0,t1,t0
    80000292:	03051693          	slli	a3,a0,0x30
    80000296:	0306d313          	srli	t1,a3,0x30
    8000029a:	00137393          	andi	t2,t1,1
    8000029e:	00135e13          	srli	t3,t1,0x1
    800002a2:	00f38b63          	beq	t2,a5,800002b8 <crcu16+0x12c>
    800002a6:	7669                	lui	a2,0xffffa
    800002a8:	00160593          	addi	a1,a2,1 # ffffffffffffa001 <_pmem_end+0xffffffff77ffa001>
    800002ac:	00be4833          	xor	a6,t3,a1
    800002b0:	03081893          	slli	a7,a6,0x30
    800002b4:	0308de13          	srli	t3,a7,0x30
    800002b8:	00875e93          	srli	t4,a4,0x8
    800002bc:	01cecf33          	xor	t5,t4,t3
    800002c0:	001f7793          	andi	a5,t5,1
    800002c4:	8325                	srli	a4,a4,0x9
    800002c6:	001e5313          	srli	t1,t3,0x1
    800002ca:	cb91                	beqz	a5,800002de <crcu16+0x152>
    800002cc:	7fe9                	lui	t6,0xffffa
    800002ce:	001f8293          	addi	t0,t6,1 # ffffffffffffa001 <_pmem_end+0xffffffff77ffa001>
    800002d2:	00534533          	xor	a0,t1,t0
    800002d6:	03051693          	slli	a3,a0,0x30
    800002da:	0306d313          	srli	t1,a3,0x30
    800002de:	006743b3          	xor	t2,a4,t1
    800002e2:	0013f613          	andi	a2,t2,1
    800002e6:	002ed593          	srli	a1,t4,0x2
    800002ea:	00135793          	srli	a5,t1,0x1
    800002ee:	ca11                	beqz	a2,80000302 <crcu16+0x176>
    800002f0:	7869                	lui	a6,0xffffa
    800002f2:	00180893          	addi	a7,a6,1 # ffffffffffffa001 <_pmem_end+0xffffffff77ffa001>
    800002f6:	0117ce33          	xor	t3,a5,a7
    800002fa:	030e1f13          	slli	t5,t3,0x30
    800002fe:	030f5793          	srli	a5,t5,0x30
    80000302:	00f5c733          	xor	a4,a1,a5
    80000306:	00177f93          	andi	t6,a4,1
    8000030a:	003ed293          	srli	t0,t4,0x3
    8000030e:	0017d613          	srli	a2,a5,0x1
    80000312:	000f8b63          	beqz	t6,80000328 <crcu16+0x19c>
    80000316:	76e9                	lui	a3,0xffffa
    80000318:	00168313          	addi	t1,a3,1 # ffffffffffffa001 <_pmem_end+0xffffffff77ffa001>
    8000031c:	00664533          	xor	a0,a2,t1
    80000320:	03051393          	slli	t2,a0,0x30
    80000324:	0303d613          	srli	a2,t2,0x30
    80000328:	00c2c5b3          	xor	a1,t0,a2
    8000032c:	0015f813          	andi	a6,a1,1
    80000330:	004ed893          	srli	a7,t4,0x4
    80000334:	00165f93          	srli	t6,a2,0x1
    80000338:	00080b63          	beqz	a6,8000034e <crcu16+0x1c2>
    8000033c:	7e69                	lui	t3,0xffffa
    8000033e:	001e0f13          	addi	t5,t3,1 # ffffffffffffa001 <_pmem_end+0xffffffff77ffa001>
    80000342:	01efc7b3          	xor	a5,t6,t5
    80000346:	03079713          	slli	a4,a5,0x30
    8000034a:	03075f93          	srli	t6,a4,0x30
    8000034e:	01f8c2b3          	xor	t0,a7,t6
    80000352:	0012f313          	andi	t1,t0,1
    80000356:	005ed693          	srli	a3,t4,0x5
    8000035a:	001fd813          	srli	a6,t6,0x1
    8000035e:	00030b63          	beqz	t1,80000374 <crcu16+0x1e8>
    80000362:	73e9                	lui	t2,0xffffa
    80000364:	00138613          	addi	a2,t2,1 # ffffffffffffa001 <_pmem_end+0xffffffff77ffa001>
    80000368:	00c84533          	xor	a0,a6,a2
    8000036c:	03051593          	slli	a1,a0,0x30
    80000370:	0305d813          	srli	a6,a1,0x30
    80000374:	0106c8b3          	xor	a7,a3,a6
    80000378:	0018fe13          	andi	t3,a7,1
    8000037c:	006edf13          	srli	t5,t4,0x6
    80000380:	00185313          	srli	t1,a6,0x1
    80000384:	000e0b63          	beqz	t3,8000039a <crcu16+0x20e>
    80000388:	77e9                	lui	a5,0xffffa
    8000038a:	00178713          	addi	a4,a5,1 # ffffffffffffa001 <_pmem_end+0xffffffff77ffa001>
    8000038e:	00e34fb3          	xor	t6,t1,a4
    80000392:	030f9293          	slli	t0,t6,0x30
    80000396:	0302d313          	srli	t1,t0,0x30
    8000039a:	006f46b3          	xor	a3,t5,t1
    8000039e:	0016f393          	andi	t2,a3,1
    800003a2:	007ede93          	srli	t4,t4,0x7
    800003a6:	00135893          	srli	a7,t1,0x1
    800003aa:	00038b63          	beqz	t2,800003c0 <crcu16+0x234>
    800003ae:	7669                	lui	a2,0xffffa
    800003b0:	00160593          	addi	a1,a2,1 # ffffffffffffa001 <_pmem_end+0xffffffff77ffa001>
    800003b4:	00b8c533          	xor	a0,a7,a1
    800003b8:	03051813          	slli	a6,a0,0x30
    800003bc:	03085893          	srli	a7,a6,0x30
    800003c0:	011ece33          	xor	t3,t4,a7
    800003c4:	001e7f13          	andi	t5,t3,1
    800003c8:	0018d513          	srli	a0,a7,0x1
    800003cc:	000f0b63          	beqz	t5,800003e2 <crcu16+0x256>
    800003d0:	77e9                	lui	a5,0xffffa
    800003d2:	00178713          	addi	a4,a5,1 # ffffffffffffa001 <_pmem_end+0xffffffff77ffa001>
    800003d6:	00e54fb3          	xor	t6,a0,a4
    800003da:	030f9293          	slli	t0,t6,0x30
    800003de:	0302d513          	srli	a0,t0,0x30
    800003e2:	8082                	ret

00000000800003e4 <crcu32>:
    800003e4:	0ff57713          	zext.b	a4,a0
    800003e8:	00b74833          	xor	a6,a4,a1
    800003ec:	03051693          	slli	a3,a0,0x30
    800003f0:	00187293          	andi	t0,a6,1
    800003f4:	87aa                	mv	a5,a0
    800003f6:	0306d313          	srli	t1,a3,0x30
    800003fa:	00175613          	srli	a2,a4,0x1
    800003fe:	0015de13          	srli	t3,a1,0x1
    80000402:	00028b63          	beqz	t0,80000418 <crcu32+0x34>
    80000406:	75e9                	lui	a1,0xffffa
    80000408:	00158393          	addi	t2,a1,1 # ffffffffffffa001 <_pmem_end+0xffffffff77ffa001>
    8000040c:	007e4533          	xor	a0,t3,t2
    80000410:	03051893          	slli	a7,a0,0x30
    80000414:	0308de13          	srli	t3,a7,0x30
    80000418:	01c64eb3          	xor	t4,a2,t3
    8000041c:	001eff13          	andi	t5,t4,1
    80000420:	00275f93          	srli	t6,a4,0x2
    80000424:	001e5393          	srli	t2,t3,0x1
    80000428:	000f0b63          	beqz	t5,8000043e <crcu32+0x5a>
    8000042c:	7869                	lui	a6,0xffffa
    8000042e:	00180293          	addi	t0,a6,1 # ffffffffffffa001 <_pmem_end+0xffffffff77ffa001>
    80000432:	0053c6b3          	xor	a3,t2,t0
    80000436:	03069613          	slli	a2,a3,0x30
    8000043a:	03065393          	srli	t2,a2,0x30
    8000043e:	007fc5b3          	xor	a1,t6,t2
    80000442:	0015f893          	andi	a7,a1,1
    80000446:	00375e13          	srli	t3,a4,0x3
    8000044a:	0013d813          	srli	a6,t2,0x1
    8000044e:	00088b63          	beqz	a7,80000464 <crcu32+0x80>
    80000452:	7ee9                	lui	t4,0xffffa
    80000454:	001e8f13          	addi	t5,t4,1 # ffffffffffffa001 <_pmem_end+0xffffffff77ffa001>
    80000458:	01e84533          	xor	a0,a6,t5
    8000045c:	03051f93          	slli	t6,a0,0x30
    80000460:	030fd813          	srli	a6,t6,0x30
    80000464:	010e42b3          	xor	t0,t3,a6
    80000468:	0012f693          	andi	a3,t0,1
    8000046c:	00475613          	srli	a2,a4,0x4
    80000470:	00185e93          	srli	t4,a6,0x1
    80000474:	ca91                	beqz	a3,80000488 <crcu32+0xa4>
    80000476:	73e9                	lui	t2,0xffffa
    80000478:	00138593          	addi	a1,t2,1 # ffffffffffffa001 <_pmem_end+0xffffffff77ffa001>
    8000047c:	00bec8b3          	xor	a7,t4,a1
    80000480:	03089e13          	slli	t3,a7,0x30
    80000484:	030e5e93          	srli	t4,t3,0x30
    80000488:	01d64f33          	xor	t5,a2,t4
    8000048c:	001f7f93          	andi	t6,t5,1
    80000490:	00575813          	srli	a6,a4,0x5
    80000494:	001ed393          	srli	t2,t4,0x1
    80000498:	000f8b63          	beqz	t6,800004ae <crcu32+0xca>
    8000049c:	72e9                	lui	t0,0xffffa
    8000049e:	00128693          	addi	a3,t0,1 # ffffffffffffa001 <_pmem_end+0xffffffff77ffa001>
    800004a2:	00d3c533          	xor	a0,t2,a3
    800004a6:	03051613          	slli	a2,a0,0x30
    800004aa:	03065393          	srli	t2,a2,0x30
    800004ae:	007845b3          	xor	a1,a6,t2
    800004b2:	0015f893          	andi	a7,a1,1
    800004b6:	00675e13          	srli	t3,a4,0x6
    800004ba:	0013d293          	srli	t0,t2,0x1
    800004be:	00088b63          	beqz	a7,800004d4 <crcu32+0xf0>
    800004c2:	7ee9                	lui	t4,0xffffa
    800004c4:	001e8f13          	addi	t5,t4,1 # ffffffffffffa001 <_pmem_end+0xffffffff77ffa001>
    800004c8:	01e2cfb3          	xor	t6,t0,t5
    800004cc:	030f9813          	slli	a6,t6,0x30
    800004d0:	03085293          	srli	t0,a6,0x30
    800004d4:	005e46b3          	xor	a3,t3,t0
    800004d8:	0016f613          	andi	a2,a3,1
    800004dc:	831d                	srli	a4,a4,0x7
    800004de:	0012de13          	srli	t3,t0,0x1
    800004e2:	ca11                	beqz	a2,800004f6 <crcu32+0x112>
    800004e4:	73e9                	lui	t2,0xffffa
    800004e6:	00138593          	addi	a1,t2,1 # ffffffffffffa001 <_pmem_end+0xffffffff77ffa001>
    800004ea:	00be4533          	xor	a0,t3,a1
    800004ee:	03051893          	slli	a7,a0,0x30
    800004f2:	0308de13          	srli	t3,a7,0x30
    800004f6:	001e7e93          	andi	t4,t3,1
    800004fa:	001e5393          	srli	t2,t3,0x1
    800004fe:	38ee9563          	bne	t4,a4,80000888 <crcu32+0x4a4>
    80000502:	00835713          	srli	a4,t1,0x8
    80000506:	007746b3          	xor	a3,a4,t2
    8000050a:	0016f613          	andi	a2,a3,1
    8000050e:	00935313          	srli	t1,t1,0x9
    80000512:	0013de93          	srli	t4,t2,0x1
    80000516:	ca11                	beqz	a2,8000052a <crcu32+0x146>
    80000518:	75e9                	lui	a1,0xffffa
    8000051a:	00158893          	addi	a7,a1,1 # ffffffffffffa001 <_pmem_end+0xffffffff77ffa001>
    8000051e:	011ec533          	xor	a0,t4,a7
    80000522:	03051e13          	slli	t3,a0,0x30
    80000526:	030e5e93          	srli	t4,t3,0x30
    8000052a:	01d34f33          	xor	t5,t1,t4
    8000052e:	001f7f93          	andi	t6,t5,1
    80000532:	00275813          	srli	a6,a4,0x2
    80000536:	001ed313          	srli	t1,t4,0x1
    8000053a:	000f8b63          	beqz	t6,80000550 <crcu32+0x16c>
    8000053e:	72e9                	lui	t0,0xffffa
    80000540:	00128393          	addi	t2,t0,1 # ffffffffffffa001 <_pmem_end+0xffffffff77ffa001>
    80000544:	007346b3          	xor	a3,t1,t2
    80000548:	03069613          	slli	a2,a3,0x30
    8000054c:	03065313          	srli	t1,a2,0x30
    80000550:	006845b3          	xor	a1,a6,t1
    80000554:	0015f893          	andi	a7,a1,1
    80000558:	00375e13          	srli	t3,a4,0x3
    8000055c:	00135813          	srli	a6,t1,0x1
    80000560:	00088b63          	beqz	a7,80000576 <crcu32+0x192>
    80000564:	7ee9                	lui	t4,0xffffa
    80000566:	001e8f13          	addi	t5,t4,1 # ffffffffffffa001 <_pmem_end+0xffffffff77ffa001>
    8000056a:	01e84533          	xor	a0,a6,t5
    8000056e:	03051f93          	slli	t6,a0,0x30
    80000572:	030fd813          	srli	a6,t6,0x30
    80000576:	010e42b3          	xor	t0,t3,a6
    8000057a:	0012f393          	andi	t2,t0,1
    8000057e:	00475693          	srli	a3,a4,0x4
    80000582:	00185e13          	srli	t3,a6,0x1
    80000586:	00038b63          	beqz	t2,8000059c <crcu32+0x1b8>
    8000058a:	7669                	lui	a2,0xffffa
    8000058c:	00160313          	addi	t1,a2,1 # ffffffffffffa001 <_pmem_end+0xffffffff77ffa001>
    80000590:	006e45b3          	xor	a1,t3,t1
    80000594:	03059893          	slli	a7,a1,0x30
    80000598:	0308de13          	srli	t3,a7,0x30
    8000059c:	01c6ceb3          	xor	t4,a3,t3
    800005a0:	001eff13          	andi	t5,t4,1
    800005a4:	00575f93          	srli	t6,a4,0x5
    800005a8:	001e5313          	srli	t1,t3,0x1
    800005ac:	000f0b63          	beqz	t5,800005c2 <crcu32+0x1de>
    800005b0:	7869                	lui	a6,0xffffa
    800005b2:	00180293          	addi	t0,a6,1 # ffffffffffffa001 <_pmem_end+0xffffffff77ffa001>
    800005b6:	00534533          	xor	a0,t1,t0
    800005ba:	03051393          	slli	t2,a0,0x30
    800005be:	0303d313          	srli	t1,t2,0x30
    800005c2:	006fc6b3          	xor	a3,t6,t1
    800005c6:	0016f613          	andi	a2,a3,1
    800005ca:	00675593          	srli	a1,a4,0x6
    800005ce:	00135f93          	srli	t6,t1,0x1
    800005d2:	ca11                	beqz	a2,800005e6 <crcu32+0x202>
    800005d4:	78e9                	lui	a7,0xffffa
    800005d6:	00188e13          	addi	t3,a7,1 # ffffffffffffa001 <_pmem_end+0xffffffff77ffa001>
    800005da:	01cfceb3          	xor	t4,t6,t3
    800005de:	030e9f13          	slli	t5,t4,0x30
    800005e2:	030f5f93          	srli	t6,t5,0x30
    800005e6:	01f5c833          	xor	a6,a1,t6
    800005ea:	00187293          	andi	t0,a6,1
    800005ee:	831d                	srli	a4,a4,0x7
    800005f0:	001fd613          	srli	a2,t6,0x1
    800005f4:	00028b63          	beqz	t0,8000060a <crcu32+0x226>
    800005f8:	73e9                	lui	t2,0xffffa
    800005fa:	00138313          	addi	t1,t2,1 # ffffffffffffa001 <_pmem_end+0xffffffff77ffa001>
    800005fe:	00664533          	xor	a0,a2,t1
    80000602:	03051693          	slli	a3,a0,0x30
    80000606:	0306d613          	srli	a2,a3,0x30
    8000060a:	00c745b3          	xor	a1,a4,a2
    8000060e:	0015f893          	andi	a7,a1,1
    80000612:	00165813          	srli	a6,a2,0x1
    80000616:	24089f63          	bnez	a7,80000874 <crcu32+0x490>
    8000061a:	0107d29b          	srliw	t0,a5,0x10
    8000061e:	0ff2f713          	zext.b	a4,t0
    80000622:	010743b3          	xor	t2,a4,a6
    80000626:	0013f313          	andi	t1,t2,1
    8000062a:	0107d79b          	srliw	a5,a5,0x10
    8000062e:	00175613          	srli	a2,a4,0x1
    80000632:	00185e13          	srli	t3,a6,0x1
    80000636:	00030b63          	beqz	t1,8000064c <crcu32+0x268>
    8000063a:	76e9                	lui	a3,0xffffa
    8000063c:	00168593          	addi	a1,a3,1 # ffffffffffffa001 <_pmem_end+0xffffffff77ffa001>
    80000640:	00be4533          	xor	a0,t3,a1
    80000644:	03051893          	slli	a7,a0,0x30
    80000648:	0308de13          	srli	t3,a7,0x30
    8000064c:	01c64eb3          	xor	t4,a2,t3
    80000650:	001eff13          	andi	t5,t4,1
    80000654:	00275f93          	srli	t6,a4,0x2
    80000658:	001e5593          	srli	a1,t3,0x1
    8000065c:	000f0b63          	beqz	t5,80000672 <crcu32+0x28e>
    80000660:	7869                	lui	a6,0xffffa
    80000662:	00180293          	addi	t0,a6,1 # ffffffffffffa001 <_pmem_end+0xffffffff77ffa001>
    80000666:	0055c3b3          	xor	t2,a1,t0
    8000066a:	03039313          	slli	t1,t2,0x30
    8000066e:	03035593          	srli	a1,t1,0x30
    80000672:	00bfc633          	xor	a2,t6,a1
    80000676:	00167693          	andi	a3,a2,1
    8000067a:	00375893          	srli	a7,a4,0x3
    8000067e:	0015df93          	srli	t6,a1,0x1
    80000682:	ca91                	beqz	a3,80000696 <crcu32+0x2b2>
    80000684:	7e69                	lui	t3,0xffffa
    80000686:	001e0e93          	addi	t4,t3,1 # ffffffffffffa001 <_pmem_end+0xffffffff77ffa001>
    8000068a:	01dfc533          	xor	a0,t6,t4
    8000068e:	03051f13          	slli	t5,a0,0x30
    80000692:	030f5f93          	srli	t6,t5,0x30
    80000696:	01f8c833          	xor	a6,a7,t6
    8000069a:	00187293          	andi	t0,a6,1
    8000069e:	00475393          	srli	t2,a4,0x4
    800006a2:	001fd893          	srli	a7,t6,0x1
    800006a6:	00028b63          	beqz	t0,800006bc <crcu32+0x2d8>
    800006aa:	7369                	lui	t1,0xffffa
    800006ac:	00130593          	addi	a1,t1,1 # ffffffffffffa001 <_pmem_end+0xffffffff77ffa001>
    800006b0:	00b8c633          	xor	a2,a7,a1
    800006b4:	03061693          	slli	a3,a2,0x30
    800006b8:	0306d893          	srli	a7,a3,0x30
    800006bc:	0113ce33          	xor	t3,t2,a7
    800006c0:	001e7e93          	andi	t4,t3,1
    800006c4:	00575f13          	srli	t5,a4,0x5
    800006c8:	0018d393          	srli	t2,a7,0x1
    800006cc:	000e8b63          	beqz	t4,800006e2 <crcu32+0x2fe>
    800006d0:	7fe9                	lui	t6,0xffffa
    800006d2:	001f8813          	addi	a6,t6,1 # ffffffffffffa001 <_pmem_end+0xffffffff77ffa001>
    800006d6:	0103c533          	xor	a0,t2,a6
    800006da:	03051293          	slli	t0,a0,0x30
    800006de:	0302d393          	srli	t2,t0,0x30
    800006e2:	007f4333          	xor	t1,t5,t2
    800006e6:	00137593          	andi	a1,t1,1
    800006ea:	00675693          	srli	a3,a4,0x6
    800006ee:	0013df13          	srli	t5,t2,0x1
    800006f2:	c991                	beqz	a1,80000706 <crcu32+0x322>
    800006f4:	7669                	lui	a2,0xffffa
    800006f6:	00160893          	addi	a7,a2,1 # ffffffffffffa001 <_pmem_end+0xffffffff77ffa001>
    800006fa:	011f4e33          	xor	t3,t5,a7
    800006fe:	030e1e93          	slli	t4,t3,0x30
    80000702:	030edf13          	srli	t5,t4,0x30
    80000706:	01e6cfb3          	xor	t6,a3,t5
    8000070a:	001ff813          	andi	a6,t6,1
    8000070e:	831d                	srli	a4,a4,0x7
    80000710:	001f5593          	srli	a1,t5,0x1
    80000714:	00080b63          	beqz	a6,8000072a <crcu32+0x346>
    80000718:	72e9                	lui	t0,0xffffa
    8000071a:	00128393          	addi	t2,t0,1 # ffffffffffffa001 <_pmem_end+0xffffffff77ffa001>
    8000071e:	0075c533          	xor	a0,a1,t2
    80000722:	03051313          	slli	t1,a0,0x30
    80000726:	03035593          	srli	a1,t1,0x30
    8000072a:	0015f693          	andi	a3,a1,1
    8000072e:	0015df13          	srli	t5,a1,0x1
    80000732:	12e69763          	bne	a3,a4,80000860 <crcu32+0x47c>
    80000736:	0087df93          	srli	t6,a5,0x8
    8000073a:	01efc833          	xor	a6,t6,t5
    8000073e:	00187713          	andi	a4,a6,1
    80000742:	83a5                	srli	a5,a5,0x9
    80000744:	001f5593          	srli	a1,t5,0x1
    80000748:	cb11                	beqz	a4,8000075c <crcu32+0x378>
    8000074a:	72e9                	lui	t0,0xffffa
    8000074c:	00128393          	addi	t2,t0,1 # ffffffffffffa001 <_pmem_end+0xffffffff77ffa001>
    80000750:	0075c533          	xor	a0,a1,t2
    80000754:	03051313          	slli	t1,a0,0x30
    80000758:	03035593          	srli	a1,t1,0x30
    8000075c:	00b7c6b3          	xor	a3,a5,a1
    80000760:	0016f613          	andi	a2,a3,1
    80000764:	002fd893          	srli	a7,t6,0x2
    80000768:	0015d713          	srli	a4,a1,0x1
    8000076c:	ca11                	beqz	a2,80000780 <crcu32+0x39c>
    8000076e:	7e69                	lui	t3,0xffffa
    80000770:	001e0e93          	addi	t4,t3,1 # ffffffffffffa001 <_pmem_end+0xffffffff77ffa001>
    80000774:	01d74f33          	xor	t5,a4,t4
    80000778:	030f1813          	slli	a6,t5,0x30
    8000077c:	03085713          	srli	a4,a6,0x30
    80000780:	00e8c7b3          	xor	a5,a7,a4
    80000784:	0017f293          	andi	t0,a5,1
    80000788:	003fd393          	srli	t2,t6,0x3
    8000078c:	00175613          	srli	a2,a4,0x1
    80000790:	00028b63          	beqz	t0,800007a6 <crcu32+0x3c2>
    80000794:	7369                	lui	t1,0xffffa
    80000796:	00130593          	addi	a1,t1,1 # ffffffffffffa001 <_pmem_end+0xffffffff77ffa001>
    8000079a:	00b64533          	xor	a0,a2,a1
    8000079e:	03051693          	slli	a3,a0,0x30
    800007a2:	0306d613          	srli	a2,a3,0x30
    800007a6:	00c3c8b3          	xor	a7,t2,a2
    800007aa:	0018fe13          	andi	t3,a7,1
    800007ae:	004fde93          	srli	t4,t6,0x4
    800007b2:	00165293          	srli	t0,a2,0x1
    800007b6:	000e0b63          	beqz	t3,800007cc <crcu32+0x3e8>
    800007ba:	7f69                	lui	t5,0xffffa
    800007bc:	001f0813          	addi	a6,t5,1 # ffffffffffffa001 <_pmem_end+0xffffffff77ffa001>
    800007c0:	0102c733          	xor	a4,t0,a6
    800007c4:	03071793          	slli	a5,a4,0x30
    800007c8:	0307d293          	srli	t0,a5,0x30
    800007cc:	005ec3b3          	xor	t2,t4,t0
    800007d0:	0013f313          	andi	t1,t2,1
    800007d4:	005fd593          	srli	a1,t6,0x5
    800007d8:	0012de13          	srli	t3,t0,0x1
    800007dc:	00030b63          	beqz	t1,800007f2 <crcu32+0x40e>
    800007e0:	76e9                	lui	a3,0xffffa
    800007e2:	00168613          	addi	a2,a3,1 # ffffffffffffa001 <_pmem_end+0xffffffff77ffa001>
    800007e6:	00ce4533          	xor	a0,t3,a2
    800007ea:	03051893          	slli	a7,a0,0x30
    800007ee:	0308de13          	srli	t3,a7,0x30
    800007f2:	01c5ceb3          	xor	t4,a1,t3
    800007f6:	001eff13          	andi	t5,t4,1
    800007fa:	006fd813          	srli	a6,t6,0x6
    800007fe:	001e5313          	srli	t1,t3,0x1
    80000802:	000f0b63          	beqz	t5,80000818 <crcu32+0x434>
    80000806:	7769                	lui	a4,0xffffa
    80000808:	00170793          	addi	a5,a4,1 # ffffffffffffa001 <_pmem_end+0xffffffff77ffa001>
    8000080c:	00f342b3          	xor	t0,t1,a5
    80000810:	03029393          	slli	t2,t0,0x30
    80000814:	0303d313          	srli	t1,t2,0x30
    80000818:	006845b3          	xor	a1,a6,t1
    8000081c:	0015f693          	andi	a3,a1,1
    80000820:	007fdf93          	srli	t6,t6,0x7
    80000824:	00135e93          	srli	t4,t1,0x1
    80000828:	ca91                	beqz	a3,8000083c <crcu32+0x458>
    8000082a:	7669                	lui	a2,0xffffa
    8000082c:	00160893          	addi	a7,a2,1 # ffffffffffffa001 <_pmem_end+0xffffffff77ffa001>
    80000830:	011ec533          	xor	a0,t4,a7
    80000834:	03051e13          	slli	t3,a0,0x30
    80000838:	030e5e93          	srli	t4,t3,0x30
    8000083c:	01dfcf33          	xor	t5,t6,t4
    80000840:	001f7813          	andi	a6,t5,1
    80000844:	001ed513          	srli	a0,t4,0x1
    80000848:	00080b63          	beqz	a6,8000085e <crcu32+0x47a>
    8000084c:	7769                	lui	a4,0xffffa
    8000084e:	00170793          	addi	a5,a4,1 # ffffffffffffa001 <_pmem_end+0xffffffff77ffa001>
    80000852:	00f542b3          	xor	t0,a0,a5
    80000856:	03029393          	slli	t2,t0,0x30
    8000085a:	0303d513          	srli	a0,t2,0x30
    8000085e:	8082                	ret
    80000860:	7669                	lui	a2,0xffffa
    80000862:	00160893          	addi	a7,a2,1 # ffffffffffffa001 <_pmem_end+0xffffffff77ffa001>
    80000866:	011f4e33          	xor	t3,t5,a7
    8000086a:	030e1e93          	slli	t4,t3,0x30
    8000086e:	030edf13          	srli	t5,t4,0x30
    80000872:	b5d1                	j	80000736 <crcu32+0x352>
    80000874:	7e69                	lui	t3,0xffffa
    80000876:	001e0e93          	addi	t4,t3,1 # ffffffffffffa001 <_pmem_end+0xffffffff77ffa001>
    8000087a:	01d84f33          	xor	t5,a6,t4
    8000087e:	030f1f93          	slli	t6,t5,0x30
    80000882:	030fd813          	srli	a6,t6,0x30
    80000886:	bb51                	j	8000061a <crcu32+0x236>
    80000888:	7f69                	lui	t5,0xffffa
    8000088a:	001f0f93          	addi	t6,t5,1 # ffffffffffffa001 <_pmem_end+0xffffffff77ffa001>
    8000088e:	01f3c833          	xor	a6,t2,t6
    80000892:	03081293          	slli	t0,a6,0x30
    80000896:	0302d393          	srli	t2,t0,0x30
    8000089a:	b1a5                	j	80000502 <crcu32+0x11e>

000000008000089c <crc16>:
    8000089c:	0ff57793          	zext.b	a5,a0
    800008a0:	00b7c6b3          	xor	a3,a5,a1
    800008a4:	03051713          	slli	a4,a0,0x30
    800008a8:	0016f293          	andi	t0,a3,1
    800008ac:	03075313          	srli	t1,a4,0x30
    800008b0:	0017d613          	srli	a2,a5,0x1
    800008b4:	0015d893          	srli	a7,a1,0x1
    800008b8:	00028b63          	beqz	t0,800008ce <crc16+0x32>
    800008bc:	73e9                	lui	t2,0xffffa
    800008be:	00138593          	addi	a1,t2,1 # ffffffffffffa001 <_pmem_end+0xffffffff77ffa001>
    800008c2:	00b8c533          	xor	a0,a7,a1
    800008c6:	03051813          	slli	a6,a0,0x30
    800008ca:	03085893          	srli	a7,a6,0x30
    800008ce:	01164e33          	xor	t3,a2,a7
    800008d2:	001e7e93          	andi	t4,t3,1
    800008d6:	0027df13          	srli	t5,a5,0x2
    800008da:	0018d393          	srli	t2,a7,0x1
    800008de:	000e8b63          	beqz	t4,800008f4 <crc16+0x58>
    800008e2:	7fe9                	lui	t6,0xffffa
    800008e4:	001f8693          	addi	a3,t6,1 # ffffffffffffa001 <_pmem_end+0xffffffff77ffa001>
    800008e8:	00d3c2b3          	xor	t0,t2,a3
    800008ec:	03029713          	slli	a4,t0,0x30
    800008f0:	03075393          	srli	t2,a4,0x30
    800008f4:	007f4633          	xor	a2,t5,t2
    800008f8:	00167593          	andi	a1,a2,1
    800008fc:	0037d813          	srli	a6,a5,0x3
    80000900:	0013df13          	srli	t5,t2,0x1
    80000904:	c991                	beqz	a1,80000918 <crc16+0x7c>
    80000906:	78e9                	lui	a7,0xffffa
    80000908:	00188e13          	addi	t3,a7,1 # ffffffffffffa001 <_pmem_end+0xffffffff77ffa001>
    8000090c:	01cf4533          	xor	a0,t5,t3
    80000910:	03051e93          	slli	t4,a0,0x30
    80000914:	030edf13          	srli	t5,t4,0x30
    80000918:	01e84fb3          	xor	t6,a6,t5
    8000091c:	001ff293          	andi	t0,t6,1
    80000920:	0047d693          	srli	a3,a5,0x4
    80000924:	001f5813          	srli	a6,t5,0x1
    80000928:	00028b63          	beqz	t0,8000093e <crc16+0xa2>
    8000092c:	7769                	lui	a4,0xffffa
    8000092e:	00170393          	addi	t2,a4,1 # ffffffffffffa001 <_pmem_end+0xffffffff77ffa001>
    80000932:	00784633          	xor	a2,a6,t2
    80000936:	03061593          	slli	a1,a2,0x30
    8000093a:	0305d813          	srli	a6,a1,0x30
    8000093e:	0106c8b3          	xor	a7,a3,a6
    80000942:	0018fe13          	andi	t3,a7,1
    80000946:	0057de93          	srli	t4,a5,0x5
    8000094a:	00185713          	srli	a4,a6,0x1
    8000094e:	000e0b63          	beqz	t3,80000964 <crc16+0xc8>
    80000952:	7f69                	lui	t5,0xffffa
    80000954:	001f0f93          	addi	t6,t5,1 # ffffffffffffa001 <_pmem_end+0xffffffff77ffa001>
    80000958:	01f74533          	xor	a0,a4,t6
    8000095c:	03051293          	slli	t0,a0,0x30
    80000960:	0302d713          	srli	a4,t0,0x30
    80000964:	00eec6b3          	xor	a3,t4,a4
    80000968:	0016f393          	andi	t2,a3,1
    8000096c:	0067d593          	srli	a1,a5,0x6
    80000970:	00175e93          	srli	t4,a4,0x1
    80000974:	00038b63          	beqz	t2,8000098a <crc16+0xee>
    80000978:	7669                	lui	a2,0xffffa
    8000097a:	00160813          	addi	a6,a2,1 # ffffffffffffa001 <_pmem_end+0xffffffff77ffa001>
    8000097e:	010ec8b3          	xor	a7,t4,a6
    80000982:	03089e13          	slli	t3,a7,0x30
    80000986:	030e5e93          	srli	t4,t3,0x30
    8000098a:	01d5cf33          	xor	t5,a1,t4
    8000098e:	001f7f93          	andi	t6,t5,1
    80000992:	839d                	srli	a5,a5,0x7
    80000994:	001ed393          	srli	t2,t4,0x1
    80000998:	000f8b63          	beqz	t6,800009ae <crc16+0x112>
    8000099c:	72e9                	lui	t0,0xffffa
    8000099e:	00128713          	addi	a4,t0,1 # ffffffffffffa001 <_pmem_end+0xffffffff77ffa001>
    800009a2:	00e3c533          	xor	a0,t2,a4
    800009a6:	03051693          	slli	a3,a0,0x30
    800009aa:	0306d393          	srli	t2,a3,0x30
    800009ae:	0013f593          	andi	a1,t2,1
    800009b2:	0013de93          	srli	t4,t2,0x1
    800009b6:	12f59763          	bne	a1,a5,80000ae4 <crc16+0x248>
    800009ba:	00835f13          	srli	t5,t1,0x8
    800009be:	01df4fb3          	xor	t6,t5,t4
    800009c2:	001ff793          	andi	a5,t6,1
    800009c6:	00935313          	srli	t1,t1,0x9
    800009ca:	001ed393          	srli	t2,t4,0x1
    800009ce:	cb91                	beqz	a5,800009e2 <crc16+0x146>
    800009d0:	72e9                	lui	t0,0xffffa
    800009d2:	00128713          	addi	a4,t0,1 # ffffffffffffa001 <_pmem_end+0xffffffff77ffa001>
    800009d6:	00e3c533          	xor	a0,t2,a4
    800009da:	03051693          	slli	a3,a0,0x30
    800009de:	0306d393          	srli	t2,a3,0x30
    800009e2:	007345b3          	xor	a1,t1,t2
    800009e6:	0015f613          	andi	a2,a1,1
    800009ea:	002f5813          	srli	a6,t5,0x2
    800009ee:	0013d793          	srli	a5,t2,0x1
    800009f2:	ca11                	beqz	a2,80000a06 <crc16+0x16a>
    800009f4:	78e9                	lui	a7,0xffffa
    800009f6:	00188e13          	addi	t3,a7,1 # ffffffffffffa001 <_pmem_end+0xffffffff77ffa001>
    800009fa:	01c7ceb3          	xor	t4,a5,t3
    800009fe:	030e9f93          	slli	t6,t4,0x30
    80000a02:	030fd793          	srli	a5,t6,0x30
    80000a06:	00f84333          	xor	t1,a6,a5
    80000a0a:	00137293          	andi	t0,t1,1
    80000a0e:	003f5693          	srli	a3,t5,0x3
    80000a12:	0017d613          	srli	a2,a5,0x1
    80000a16:	00028b63          	beqz	t0,80000a2c <crc16+0x190>
    80000a1a:	7769                	lui	a4,0xffffa
    80000a1c:	00170393          	addi	t2,a4,1 # ffffffffffffa001 <_pmem_end+0xffffffff77ffa001>
    80000a20:	00764533          	xor	a0,a2,t2
    80000a24:	03051593          	slli	a1,a0,0x30
    80000a28:	0305d613          	srli	a2,a1,0x30
    80000a2c:	00c6c833          	xor	a6,a3,a2
    80000a30:	00187893          	andi	a7,a6,1
    80000a34:	004f5e13          	srli	t3,t5,0x4
    80000a38:	00165293          	srli	t0,a2,0x1
    80000a3c:	00088b63          	beqz	a7,80000a52 <crc16+0x1b6>
    80000a40:	7ee9                	lui	t4,0xffffa
    80000a42:	001e8f93          	addi	t6,t4,1 # ffffffffffffa001 <_pmem_end+0xffffffff77ffa001>
    80000a46:	01f2c7b3          	xor	a5,t0,t6
    80000a4a:	03079313          	slli	t1,a5,0x30
    80000a4e:	03035293          	srli	t0,t1,0x30
    80000a52:	005e46b3          	xor	a3,t3,t0
    80000a56:	0016f713          	andi	a4,a3,1
    80000a5a:	005f5393          	srli	t2,t5,0x5
    80000a5e:	0012d893          	srli	a7,t0,0x1
    80000a62:	cb11                	beqz	a4,80000a76 <crc16+0x1da>
    80000a64:	75e9                	lui	a1,0xffffa
    80000a66:	00158613          	addi	a2,a1,1 # ffffffffffffa001 <_pmem_end+0xffffffff77ffa001>
    80000a6a:	00c8c533          	xor	a0,a7,a2
    80000a6e:	03051813          	slli	a6,a0,0x30
    80000a72:	03085893          	srli	a7,a6,0x30
    80000a76:	0113ce33          	xor	t3,t2,a7
    80000a7a:	001e7e93          	andi	t4,t3,1
    80000a7e:	006f5f93          	srli	t6,t5,0x6
    80000a82:	0018d393          	srli	t2,a7,0x1
    80000a86:	000e8b63          	beqz	t4,80000a9c <crc16+0x200>
    80000a8a:	77e9                	lui	a5,0xffffa
    80000a8c:	00178313          	addi	t1,a5,1 # ffffffffffffa001 <_pmem_end+0xffffffff77ffa001>
    80000a90:	0063c2b3          	xor	t0,t2,t1
    80000a94:	03029693          	slli	a3,t0,0x30
    80000a98:	0306d393          	srli	t2,a3,0x30
    80000a9c:	007fc733          	xor	a4,t6,t2
    80000aa0:	00177593          	andi	a1,a4,1
    80000aa4:	007f5f13          	srli	t5,t5,0x7
    80000aa8:	0013de13          	srli	t3,t2,0x1
    80000aac:	c991                	beqz	a1,80000ac0 <crc16+0x224>
    80000aae:	7669                	lui	a2,0xffffa
    80000ab0:	00160813          	addi	a6,a2,1 # ffffffffffffa001 <_pmem_end+0xffffffff77ffa001>
    80000ab4:	010e4533          	xor	a0,t3,a6
    80000ab8:	03051893          	slli	a7,a0,0x30
    80000abc:	0308de13          	srli	t3,a7,0x30
    80000ac0:	01cf4eb3          	xor	t4,t5,t3
    80000ac4:	001eff93          	andi	t6,t4,1
    80000ac8:	001e5513          	srli	a0,t3,0x1
    80000acc:	000f8b63          	beqz	t6,80000ae2 <crc16+0x246>
    80000ad0:	77e9                	lui	a5,0xffffa
    80000ad2:	00178313          	addi	t1,a5,1 # ffffffffffffa001 <_pmem_end+0xffffffff77ffa001>
    80000ad6:	006542b3          	xor	t0,a0,t1
    80000ada:	03029693          	slli	a3,t0,0x30
    80000ade:	0306d513          	srli	a0,a3,0x30
    80000ae2:	8082                	ret
    80000ae4:	7669                	lui	a2,0xffffa
    80000ae6:	00160813          	addi	a6,a2,1 # ffffffffffffa001 <_pmem_end+0xffffffff77ffa001>
    80000aea:	010ec8b3          	xor	a7,t4,a6
    80000aee:	03089e13          	slli	t3,a7,0x30
    80000af2:	030e5e93          	srli	t4,t3,0x30
    80000af6:	b5d1                	j	800009ba <crc16+0x11e>

0000000080000af8 <check_data_types>:
    80000af8:	4501                	li	a0,0
    80000afa:	8082                	ret

0000000080000afc <matrix_test>:
    80000afc:	7139                	addi	sp,sp,-64
    80000afe:	e852                	sd	s4,16(sp)
    80000b00:	fc06                	sd	ra,56(sp)
    80000b02:	7a7d                	lui	s4,0xfffff
    80000b04:	f822                	sd	s0,48(sp)
    80000b06:	f426                	sd	s1,40(sp)
    80000b08:	f04a                	sd	s2,32(sp)
    80000b0a:	ec4e                	sd	s3,24(sp)
    80000b0c:	e456                	sd	s5,8(sp)
    80000b0e:	e05a                	sd	s6,0(sp)
    80000b10:	01476a33          	or	s4,a4,s4
    80000b14:	100503e3          	beqz	a0,8000141a <matrix_test+0x91e>
    80000b18:	03071a93          	slli	s5,a4,0x30
    80000b1c:	89ae                	mv	s3,a1
    80000b1e:	8936                	mv	s2,a3
    80000b20:	88ba                	mv	a7,a4
    80000b22:	882a                	mv	a6,a0
    80000b24:	84b2                	mv	s1,a2
    80000b26:	030ada93          	srli	s5,s5,0x30
    80000b2a:	86aa                	mv	a3,a0
    80000b2c:	4581                	li	a1,0
    80000b2e:	4b01                	li	s6,0
    80000b30:	40b68733          	sub	a4,a3,a1
    80000b34:	00777093          	andi	ra,a4,7
    80000b38:	87ae                	mv	a5,a1
    80000b3a:	0e008263          	beqz	ra,80000c1e <matrix_test+0x122>
    80000b3e:	4605                	li	a2,1
    80000b40:	0cc08063          	beq	ra,a2,80000c00 <matrix_test+0x104>
    80000b44:	4289                	li	t0,2
    80000b46:	0a508063          	beq	ra,t0,80000be6 <matrix_test+0xea>
    80000b4a:	430d                	li	t1,3
    80000b4c:	08608063          	beq	ra,t1,80000bcc <matrix_test+0xd0>
    80000b50:	4391                	li	t2,4
    80000b52:	06708063          	beq	ra,t2,80000bb2 <matrix_test+0xb6>
    80000b56:	4415                	li	s0,5
    80000b58:	04808063          	beq	ra,s0,80000b98 <matrix_test+0x9c>
    80000b5c:	4519                	li	a0,6
    80000b5e:	02a08063          	beq	ra,a0,80000b7e <matrix_test+0x82>
    80000b62:	02059793          	slli	a5,a1,0x20
    80000b66:	01f7de13          	srli	t3,a5,0x1f
    80000b6a:	01c48eb3          	add	t4,s1,t3
    80000b6e:	000edf03          	lhu	t5,0(t4)
    80000b72:	0015879b          	addiw	a5,a1,1
    80000b76:	015f0fbb          	addw	t6,t5,s5
    80000b7a:	01fe9023          	sh	t6,0(t4)
    80000b7e:	02079713          	slli	a4,a5,0x20
    80000b82:	01f75093          	srli	ra,a4,0x1f
    80000b86:	001482b3          	add	t0,s1,ra
    80000b8a:	0002d603          	lhu	a2,0(t0)
    80000b8e:	2785                	addiw	a5,a5,1
    80000b90:	0156033b          	addw	t1,a2,s5
    80000b94:	00629023          	sh	t1,0(t0)
    80000b98:	02079393          	slli	t2,a5,0x20
    80000b9c:	01f3d413          	srli	s0,t2,0x1f
    80000ba0:	00848533          	add	a0,s1,s0
    80000ba4:	00055e03          	lhu	t3,0(a0)
    80000ba8:	2785                	addiw	a5,a5,1
    80000baa:	015e0ebb          	addw	t4,t3,s5
    80000bae:	01d51023          	sh	t4,0(a0)
    80000bb2:	02079f13          	slli	t5,a5,0x20
    80000bb6:	01ff5f93          	srli	t6,t5,0x1f
    80000bba:	01f48733          	add	a4,s1,t6
    80000bbe:	00075083          	lhu	ra,0(a4)
    80000bc2:	2785                	addiw	a5,a5,1
    80000bc4:	015082bb          	addw	t0,ra,s5
    80000bc8:	00571023          	sh	t0,0(a4)
    80000bcc:	02079613          	slli	a2,a5,0x20
    80000bd0:	01f65313          	srli	t1,a2,0x1f
    80000bd4:	006483b3          	add	t2,s1,t1
    80000bd8:	0003d403          	lhu	s0,0(t2)
    80000bdc:	2785                	addiw	a5,a5,1
    80000bde:	0154053b          	addw	a0,s0,s5
    80000be2:	00a39023          	sh	a0,0(t2)
    80000be6:	02079e13          	slli	t3,a5,0x20
    80000bea:	01fe5e93          	srli	t4,t3,0x1f
    80000bee:	01d48f33          	add	t5,s1,t4
    80000bf2:	000f5f83          	lhu	t6,0(t5)
    80000bf6:	2785                	addiw	a5,a5,1
    80000bf8:	015f873b          	addw	a4,t6,s5
    80000bfc:	00ef1023          	sh	a4,0(t5)
    80000c00:	02079093          	slli	ra,a5,0x20
    80000c04:	01f0d293          	srli	t0,ra,0x1f
    80000c08:	00548333          	add	t1,s1,t0
    80000c0c:	00035603          	lhu	a2,0(t1)
    80000c10:	2785                	addiw	a5,a5,1
    80000c12:	015603bb          	addw	t2,a2,s5
    80000c16:	00731023          	sh	t2,0(t1)
    80000c1a:	0ef68263          	beq	a3,a5,80000cfe <matrix_test+0x202>
    80000c1e:	02079513          	slli	a0,a5,0x20
    80000c22:	01f55393          	srli	t2,a0,0x1f
    80000c26:	007482b3          	add	t0,s1,t2
    80000c2a:	0002d603          	lhu	a2,0(t0)
    80000c2e:	2785                	addiw	a5,a5,1
    80000c30:	02079713          	slli	a4,a5,0x20
    80000c34:	01f75093          	srli	ra,a4,0x1f
    80000c38:	0156033b          	addw	t1,a2,s5
    80000c3c:	00629023          	sh	t1,0(t0)
    80000c40:	00148e33          	add	t3,s1,ra
    80000c44:	000e5f83          	lhu	t6,0(t3)
    80000c48:	00178f1b          	addiw	t5,a5,1
    80000c4c:	020f1413          	slli	s0,t5,0x20
    80000c50:	01f45e93          	srli	t4,s0,0x1f
    80000c54:	015f853b          	addw	a0,t6,s5
    80000c58:	00ae1023          	sh	a0,0(t3)
    80000c5c:	01d483b3          	add	t2,s1,t4
    80000c60:	0003d283          	lhu	t0,0(t2)
    80000c64:	001f061b          	addiw	a2,t5,1
    80000c68:	02061793          	slli	a5,a2,0x20
    80000c6c:	01f7d713          	srli	a4,a5,0x1f
    80000c70:	015280bb          	addw	ra,t0,s5
    80000c74:	00139023          	sh	ra,0(t2)
    80000c78:	00e48e33          	add	t3,s1,a4
    80000c7c:	000e5f83          	lhu	t6,0(t3)
    80000c80:	00160f1b          	addiw	t5,a2,1
    80000c84:	020f1313          	slli	t1,t5,0x20
    80000c88:	01f35413          	srli	s0,t1,0x1f
    80000c8c:	015f8ebb          	addw	t4,t6,s5
    80000c90:	01de1023          	sh	t4,0(t3)
    80000c94:	008483b3          	add	t2,s1,s0
    80000c98:	0003d503          	lhu	a0,0(t2)
    80000c9c:	001f029b          	addiw	t0,t5,1
    80000ca0:	02029613          	slli	a2,t0,0x20
    80000ca4:	01f65793          	srli	a5,a2,0x1f
    80000ca8:	0155073b          	addw	a4,a0,s5
    80000cac:	00e39023          	sh	a4,0(t2)
    80000cb0:	00f480b3          	add	ra,s1,a5
    80000cb4:	0000de03          	lhu	t3,0(ra)
    80000cb8:	00128f9b          	addiw	t6,t0,1
    80000cbc:	020f9f13          	slli	t5,t6,0x20
    80000cc0:	01ff5313          	srli	t1,t5,0x1f
    80000cc4:	015e043b          	addw	s0,t3,s5
    80000cc8:	00809023          	sh	s0,0(ra)
    80000ccc:	00648eb3          	add	t4,s1,t1
    80000cd0:	000ed383          	lhu	t2,0(t4)
    80000cd4:	001f879b          	addiw	a5,t6,1
    80000cd8:	02079513          	slli	a0,a5,0x20
    80000cdc:	0153863b          	addw	a2,t2,s5
    80000ce0:	01f55293          	srli	t0,a0,0x1f
    80000ce4:	00ce9023          	sh	a2,0(t4)
    80000ce8:	00548333          	add	t1,s1,t0
    80000cec:	00035603          	lhu	a2,0(t1)
    80000cf0:	2785                	addiw	a5,a5,1
    80000cf2:	015603bb          	addw	t2,a2,s5
    80000cf6:	00731023          	sh	t2,0(t1)
    80000cfa:	f2f692e3          	bne	a3,a5,80000c1e <matrix_test+0x122>
    80000cfe:	001b041b          	addiw	s0,s6,1
    80000d02:	00b805bb          	addw	a1,a6,a1
    80000d06:	00d806bb          	addw	a3,a6,a3
    80000d0a:	00880463          	beq	a6,s0,80000d12 <matrix_test+0x216>
    80000d0e:	8b22                	mv	s6,s0
    80000d10:	b505                	j	80000b30 <matrix_test+0x34>
    80000d12:	0008851b          	sext.w	a0,a7
    80000d16:	8322                	mv	t1,s0
    80000d18:	4e01                	li	t3,0
    80000d1a:	4e81                	li	t4,0
    80000d1c:	41c30f33          	sub	t5,t1,t3
    80000d20:	003f7f93          	andi	t6,t5,3
    80000d24:	85f2                	mv	a1,t3
    80000d26:	080f8463          	beqz	t6,80000dae <matrix_test+0x2b2>
    80000d2a:	4705                	li	a4,1
    80000d2c:	04ef8c63          	beq	t6,a4,80000d84 <matrix_test+0x288>
    80000d30:	4089                	li	ra,2
    80000d32:	021f8663          	beq	t6,ra,80000d5e <matrix_test+0x262>
    80000d36:	020e1293          	slli	t0,t3,0x20
    80000d3a:	0202d613          	srli	a2,t0,0x20
    80000d3e:	00161793          	slli	a5,a2,0x1
    80000d42:	00f483b3          	add	t2,s1,a5
    80000d46:	00039803          	lh	a6,0(t2)
    80000d4a:	00261893          	slli	a7,a2,0x2
    80000d4e:	011986b3          	add	a3,s3,a7
    80000d52:	02a80f3b          	mulw	t5,a6,a0
    80000d56:	001e059b          	addiw	a1,t3,1
    80000d5a:	01e6a023          	sw	t5,0(a3)
    80000d5e:	02059f93          	slli	t6,a1,0x20
    80000d62:	020fd093          	srli	ra,t6,0x20
    80000d66:	00109713          	slli	a4,ra,0x1
    80000d6a:	00e482b3          	add	t0,s1,a4
    80000d6e:	00029603          	lh	a2,0(t0)
    80000d72:	00209793          	slli	a5,ra,0x2
    80000d76:	00f983b3          	add	t2,s3,a5
    80000d7a:	02a6083b          	mulw	a6,a2,a0
    80000d7e:	2585                	addiw	a1,a1,1
    80000d80:	0103a023          	sw	a6,0(t2)
    80000d84:	02059893          	slli	a7,a1,0x20
    80000d88:	0208d693          	srli	a3,a7,0x20
    80000d8c:	00169f13          	slli	t5,a3,0x1
    80000d90:	01e48fb3          	add	t6,s1,t5
    80000d94:	000f9083          	lh	ra,0(t6)
    80000d98:	00269713          	slli	a4,a3,0x2
    80000d9c:	00e982b3          	add	t0,s3,a4
    80000da0:	02a0863b          	mulw	a2,ra,a0
    80000da4:	2585                	addiw	a1,a1,1
    80000da6:	00c2a023          	sw	a2,0(t0)
    80000daa:	0ab30063          	beq	t1,a1,80000e4a <matrix_test+0x34e>
    80000dae:	0015881b          	addiw	a6,a1,1
    80000db2:	02059793          	slli	a5,a1,0x20
    80000db6:	00180f1b          	addiw	t5,a6,1
    80000dba:	0207d393          	srli	t2,a5,0x20
    80000dbe:	02081893          	slli	a7,a6,0x20
    80000dc2:	001f029b          	addiw	t0,t5,1
    80000dc6:	0208d693          	srli	a3,a7,0x20
    80000dca:	00139f93          	slli	t6,t2,0x1
    80000dce:	020f1093          	slli	ra,t5,0x20
    80000dd2:	0200d713          	srli	a4,ra,0x20
    80000dd6:	00169593          	slli	a1,a3,0x1
    80000dda:	02029793          	slli	a5,t0,0x20
    80000dde:	01f48633          	add	a2,s1,t6
    80000de2:	00061f83          	lh	t6,0(a2)
    80000de6:	0207d093          	srli	ra,a5,0x20
    80000dea:	00b48833          	add	a6,s1,a1
    80000dee:	00171893          	slli	a7,a4,0x1
    80000df2:	00081f03          	lh	t5,0(a6)
    80000df6:	00109593          	slli	a1,ra,0x1
    80000dfa:	01148633          	add	a2,s1,a7
    80000dfe:	00061883          	lh	a7,0(a2)
    80000e02:	00b487b3          	add	a5,s1,a1
    80000e06:	00079803          	lh	a6,0(a5)
    80000e0a:	02af8fbb          	mulw	t6,t6,a0
    80000e0e:	0012859b          	addiw	a1,t0,1
    80000e12:	038a                	slli	t2,t2,0x2
    80000e14:	00798633          	add	a2,s3,t2
    80000e18:	068a                	slli	a3,a3,0x2
    80000e1a:	00d983b3          	add	t2,s3,a3
    80000e1e:	070a                	slli	a4,a4,0x2
    80000e20:	00e986b3          	add	a3,s3,a4
    80000e24:	008a                	slli	ra,ra,0x2
    80000e26:	001987b3          	add	a5,s3,ra
    80000e2a:	02af02bb          	mulw	t0,t5,a0
    80000e2e:	01f62023          	sw	t6,0(a2)
    80000e32:	02a88f3b          	mulw	t5,a7,a0
    80000e36:	0053a023          	sw	t0,0(t2)
    80000e3a:	02a808bb          	mulw	a7,a6,a0
    80000e3e:	01e6a023          	sw	t5,0(a3)
    80000e42:	0117a023          	sw	a7,0(a5)
    80000e46:	f6b314e3          	bne	t1,a1,80000dae <matrix_test+0x2b2>
    80000e4a:	001e859b          	addiw	a1,t4,1
    80000e4e:	01c40e3b          	addw	t3,s0,t3
    80000e52:	0064033b          	addw	t1,s0,t1
    80000e56:	016e8463          	beq	t4,s6,80000e5e <matrix_test+0x362>
    80000e5a:	8eae                	mv	t4,a1
    80000e5c:	b5c1                	j	80000d1c <matrix_test+0x220>
    80000e5e:	2a01                	sext.w	s4,s4
    80000e60:	85a2                	mv	a1,s0
    80000e62:	4801                	li	a6,0
    80000e64:	4501                	li	a0,0
    80000e66:	4301                	li	t1,0
    80000e68:	4781                	li	a5,0
    80000e6a:	4881                	li	a7,0
    80000e6c:	41058eb3          	sub	t4,a1,a6
    80000e70:	003eff93          	andi	t6,t4,3
    80000e74:	8642                	mv	a2,a6
    80000e76:	160f8263          	beqz	t6,80000fda <matrix_test+0x4de>
    80000e7a:	4385                	li	t2,1
    80000e7c:	067f8663          	beq	t6,t2,80000ee8 <matrix_test+0x3ec>
    80000e80:	4709                	li	a4,2
    80000e82:	02ef8b63          	beq	t6,a4,80000eb8 <matrix_test+0x3bc>
    80000e86:	02081613          	slli	a2,a6,0x20
    80000e8a:	01e65693          	srli	a3,a2,0x1e
    80000e8e:	00d980b3          	add	ra,s3,a3
    80000e92:	829a                	mv	t0,t1
    80000e94:	0000a303          	lw	t1,0(ra)
    80000e98:	1542                	slli	a0,a0,0x30
    80000e9a:	03055f13          	srli	t5,a0,0x30
    80000e9e:	00f307bb          	addw	a5,t1,a5
    80000ea2:	1cfa5063          	bge	s4,a5,80001062 <matrix_test+0x566>
    80000ea6:	00af079b          	addiw	a5,t5,10
    80000eaa:	0107939b          	slliw	t2,a5,0x10
    80000eae:	4103d51b          	sraiw	a0,t2,0x10
    80000eb2:	4781                	li	a5,0
    80000eb4:	0018061b          	addiw	a2,a6,1
    80000eb8:	02061713          	slli	a4,a2,0x20
    80000ebc:	01e75693          	srli	a3,a4,0x1e
    80000ec0:	00d980b3          	add	ra,s3,a3
    80000ec4:	829a                	mv	t0,t1
    80000ec6:	0000a303          	lw	t1,0(ra)
    80000eca:	1542                	slli	a0,a0,0x30
    80000ecc:	03055f13          	srli	t5,a0,0x30
    80000ed0:	00f307bb          	addw	a5,t1,a5
    80000ed4:	16fa5e63          	bge	s4,a5,80001050 <matrix_test+0x554>
    80000ed8:	00af079b          	addiw	a5,t5,10
    80000edc:	0107939b          	slliw	t2,a5,0x10
    80000ee0:	4103d51b          	sraiw	a0,t2,0x10
    80000ee4:	4781                	li	a5,0
    80000ee6:	2605                	addiw	a2,a2,1
    80000ee8:	02061713          	slli	a4,a2,0x20
    80000eec:	01e75693          	srli	a3,a4,0x1e
    80000ef0:	00d980b3          	add	ra,s3,a3
    80000ef4:	829a                	mv	t0,t1
    80000ef6:	0000a303          	lw	t1,0(ra)
    80000efa:	1542                	slli	a0,a0,0x30
    80000efc:	03055f13          	srli	t5,a0,0x30
    80000f00:	00f307bb          	addw	a5,t1,a5
    80000f04:	12fa5d63          	bge	s4,a5,8000103e <matrix_test+0x542>
    80000f08:	00af079b          	addiw	a5,t5,10
    80000f0c:	0107939b          	slliw	t2,a5,0x10
    80000f10:	4103d51b          	sraiw	a0,t2,0x10
    80000f14:	4781                	li	a5,0
    80000f16:	2605                	addiw	a2,a2,1
    80000f18:	0cb61163          	bne	a2,a1,80000fda <matrix_test+0x4de>
    80000f1c:	0018809b          	addiw	ra,a7,1
    80000f20:	00c405bb          	addw	a1,s0,a2
    80000f24:	0104083b          	addw	a6,s0,a6
    80000f28:	151b0663          	beq	s6,a7,80001074 <matrix_test+0x578>
    80000f2c:	8886                	mv	a7,ra
    80000f2e:	bf3d                	j	80000e6c <matrix_test+0x370>
    80000f30:	00532333          	slt	t1,t1,t0
    80000f34:	01e30e3b          	addw	t3,t1,t5
    80000f38:	010e1e9b          	slliw	t4,t3,0x10
    80000f3c:	410ed39b          	sraiw	t2,t4,0x10
    80000f40:	2605                	addiw	a2,a2,1
    80000f42:	02061713          	slli	a4,a2,0x20
    80000f46:	01e75093          	srli	ra,a4,0x1e
    80000f4a:	00198533          	add	a0,s3,ra
    80000f4e:	00052f03          	lw	t5,0(a0)
    80000f52:	03039313          	slli	t1,t2,0x30
    80000f56:	03035e13          	srli	t3,t1,0x30
    80000f5a:	00df0ebb          	addw	t4,t5,a3
    80000f5e:	0dda5763          	bge	s4,t4,8000102c <matrix_test+0x530>
    80000f62:	00ae069b          	addiw	a3,t3,10
    80000f66:	0106971b          	slliw	a4,a3,0x10
    80000f6a:	4107539b          	sraiw	t2,a4,0x10
    80000f6e:	4e81                	li	t4,0
    80000f70:	2605                	addiw	a2,a2,1
    80000f72:	02061093          	slli	ra,a2,0x20
    80000f76:	01e0d513          	srli	a0,ra,0x1e
    80000f7a:	00a98333          	add	t1,s3,a0
    80000f7e:	00032e03          	lw	t3,0(t1)
    80000f82:	03039293          	slli	t0,t2,0x30
    80000f86:	0302df93          	srli	t6,t0,0x30
    80000f8a:	01de0ebb          	addw	t4,t3,t4
    80000f8e:	09da5663          	bge	s4,t4,8000101a <matrix_test+0x51e>
    80000f92:	00af869b          	addiw	a3,t6,10
    80000f96:	0106909b          	slliw	ra,a3,0x10
    80000f9a:	4100d71b          	sraiw	a4,ra,0x10
    80000f9e:	4e81                	li	t4,0
    80000fa0:	0016029b          	addiw	t0,a2,1
    80000fa4:	02029613          	slli	a2,t0,0x20
    80000fa8:	01e65513          	srli	a0,a2,0x1e
    80000fac:	00a98333          	add	t1,s3,a0
    80000fb0:	00032303          	lw	t1,0(t1)
    80000fb4:	03071f93          	slli	t6,a4,0x30
    80000fb8:	030fdf13          	srli	t5,t6,0x30
    80000fbc:	01d307bb          	addw	a5,t1,t4
    80000fc0:	04fa5463          	bge	s4,a5,80001008 <matrix_test+0x50c>
    80000fc4:	00af071b          	addiw	a4,t5,10
    80000fc8:	0107169b          	slliw	a3,a4,0x10
    80000fcc:	4106d51b          	sraiw	a0,a3,0x10
    80000fd0:	4781                	li	a5,0
    80000fd2:	0012861b          	addiw	a2,t0,1
    80000fd6:	f4b603e3          	beq	a2,a1,80000f1c <matrix_test+0x420>
    80000fda:	02061713          	slli	a4,a2,0x20
    80000fde:	01e75693          	srli	a3,a4,0x1e
    80000fe2:	00d980b3          	add	ra,s3,a3
    80000fe6:	0000a283          	lw	t0,0(ra)
    80000fea:	1542                	slli	a0,a0,0x30
    80000fec:	03055f13          	srli	t5,a0,0x30
    80000ff0:	00f286bb          	addw	a3,t0,a5
    80000ff4:	f2da5ee3          	bge	s4,a3,80000f30 <matrix_test+0x434>
    80000ff8:	00af0f9b          	addiw	t6,t5,10
    80000ffc:	010f979b          	slliw	a5,t6,0x10
    80001000:	4107d39b          	sraiw	t2,a5,0x10
    80001004:	4681                	li	a3,0
    80001006:	bf2d                	j	80000f40 <matrix_test+0x444>
    80001008:	006e2e33          	slt	t3,t3,t1
    8000100c:	01ee0ebb          	addw	t4,t3,t5
    80001010:	010e939b          	slliw	t2,t4,0x10
    80001014:	4103d51b          	sraiw	a0,t2,0x10
    80001018:	bf6d                	j	80000fd2 <matrix_test+0x4d6>
    8000101a:	01cf2f33          	slt	t5,t5,t3
    8000101e:	01ff07bb          	addw	a5,t5,t6
    80001022:	0107939b          	slliw	t2,a5,0x10
    80001026:	4103d71b          	sraiw	a4,t2,0x10
    8000102a:	bf9d                	j	80000fa0 <matrix_test+0x4a4>
    8000102c:	01e2a2b3          	slt	t0,t0,t5
    80001030:	01c28fbb          	addw	t6,t0,t3
    80001034:	010f979b          	slliw	a5,t6,0x10
    80001038:	4107d39b          	sraiw	t2,a5,0x10
    8000103c:	bf15                	j	80000f70 <matrix_test+0x474>
    8000103e:	0062ae33          	slt	t3,t0,t1
    80001042:	01ee0ebb          	addw	t4,t3,t5
    80001046:	010e9f9b          	slliw	t6,t4,0x10
    8000104a:	410fd51b          	sraiw	a0,t6,0x10
    8000104e:	b5e1                	j	80000f16 <matrix_test+0x41a>
    80001050:	0062ae33          	slt	t3,t0,t1
    80001054:	01ee0ebb          	addw	t4,t3,t5
    80001058:	010e9f9b          	slliw	t6,t4,0x10
    8000105c:	410fd51b          	sraiw	a0,t6,0x10
    80001060:	b559                	j	80000ee6 <matrix_test+0x3ea>
    80001062:	0062ae33          	slt	t3,t0,t1
    80001066:	01ee0ebb          	addw	t4,t3,t5
    8000106a:	010e9f9b          	slliw	t6,t4,0x10
    8000106e:	410fd51b          	sraiw	a0,t6,0x10
    80001072:	b589                	j	80000eb4 <matrix_test+0x3b8>
    80001074:	4581                	li	a1,0
    80001076:	827ff0ef          	jal	ra,8000089c <crc16>
    8000107a:	1b02                	slli	s6,s6,0x20
    8000107c:	00498893          	addi	a7,s3,4
    80001080:	01eb5293          	srli	t0,s6,0x1e
    80001084:	00588eb3          	add	t4,a7,t0
    80001088:	85aa                	mv	a1,a0
    8000108a:	8e4e                	mv	t3,s3
    8000108c:	88a2                	mv	a7,s0
    8000108e:	4301                	li	t1,0
    80001090:	40688533          	sub	a0,a7,t1
    80001094:	00357f93          	andi	t6,a0,3
    80001098:	861a                	mv	a2,t1
    8000109a:	854a                	mv	a0,s2
    8000109c:	4f01                	li	t5,0
    8000109e:	060f8a63          	beqz	t6,80001112 <matrix_test+0x616>
    800010a2:	4785                	li	a5,1
    800010a4:	04ff8563          	beq	t6,a5,800010ee <matrix_test+0x5f2>
    800010a8:	4389                	li	t2,2
    800010aa:	027f8263          	beq	t6,t2,800010ce <matrix_test+0x5d2>
    800010ae:	02031f13          	slli	t5,t1,0x20
    800010b2:	01ff5713          	srli	a4,t5,0x1f
    800010b6:	00e486b3          	add	a3,s1,a4
    800010ba:	00069083          	lh	ra,0(a3)
    800010be:	00091803          	lh	a6,0(s2)
    800010c2:	0013061b          	addiw	a2,t1,1
    800010c6:	00290513          	addi	a0,s2,2
    800010ca:	03008f3b          	mulw	t5,ra,a6
    800010ce:	02061b13          	slli	s6,a2,0x20
    800010d2:	01fb5293          	srli	t0,s6,0x1f
    800010d6:	00548fb3          	add	t6,s1,t0
    800010da:	00051383          	lh	t2,0(a0)
    800010de:	000f9783          	lh	a5,0(t6)
    800010e2:	2605                	addiw	a2,a2,1
    800010e4:	0509                	addi	a0,a0,2
    800010e6:	0277873b          	mulw	a4,a5,t2
    800010ea:	01e70f3b          	addw	t5,a4,t5
    800010ee:	02061693          	slli	a3,a2,0x20
    800010f2:	01f6d093          	srli	ra,a3,0x1f
    800010f6:	00148833          	add	a6,s1,ra
    800010fa:	00051b03          	lh	s6,0(a0)
    800010fe:	00081283          	lh	t0,0(a6)
    80001102:	2605                	addiw	a2,a2,1
    80001104:	0509                	addi	a0,a0,2
    80001106:	03628fbb          	mulw	t6,t0,s6
    8000110a:	01ef8f3b          	addw	t5,t6,t5
    8000110e:	09160563          	beq	a2,a7,80001198 <matrix_test+0x69c>
    80001112:	0016039b          	addiw	t2,a2,1
    80001116:	02061793          	slli	a5,a2,0x20
    8000111a:	0013809b          	addiw	ra,t2,1
    8000111e:	01f7d713          	srli	a4,a5,0x1f
    80001122:	02039693          	slli	a3,t2,0x20
    80001126:	00108f9b          	addiw	t6,ra,1
    8000112a:	00e48b33          	add	s6,s1,a4
    8000112e:	01f6d293          	srli	t0,a3,0x1f
    80001132:	02009613          	slli	a2,ra,0x20
    80001136:	00051803          	lh	a6,0(a0)
    8000113a:	005483b3          	add	t2,s1,t0
    8000113e:	01f65793          	srli	a5,a2,0x1f
    80001142:	020f9293          	slli	t0,t6,0x20
    80001146:	000b1683          	lh	a3,0(s6)
    8000114a:	00251083          	lh	ra,2(a0)
    8000114e:	00039703          	lh	a4,0(t2)
    80001152:	01f2d613          	srli	a2,t0,0x1f
    80001156:	00f48b33          	add	s6,s1,a5
    8000115a:	00451383          	lh	t2,4(a0)
    8000115e:	000b1783          	lh	a5,0(s6)
    80001162:	00c48b33          	add	s6,s1,a2
    80001166:	030686bb          	mulw	a3,a3,a6
    8000116a:	00651283          	lh	t0,6(a0)
    8000116e:	000b1803          	lh	a6,0(s6)
    80001172:	001f861b          	addiw	a2,t6,1
    80001176:	0521                	addi	a0,a0,8
    80001178:	02170fbb          	mulw	t6,a4,ra
    8000117c:	01e68f3b          	addw	t5,a3,t5
    80001180:	027780bb          	mulw	ra,a5,t2
    80001184:	01ef873b          	addw	a4,t6,t5
    80001188:	025803bb          	mulw	t2,a6,t0
    8000118c:	00e087bb          	addw	a5,ra,a4
    80001190:	00f38f3b          	addw	t5,t2,a5
    80001194:	f7161fe3          	bne	a2,a7,80001112 <matrix_test+0x616>
    80001198:	01ee2023          	sw	t5,0(t3)
    8000119c:	0e11                	addi	t3,t3,4
    8000119e:	0064033b          	addw	t1,s0,t1
    800011a2:	00c408bb          	addw	a7,s0,a2
    800011a6:	efce95e3          	bne	t4,t3,80001090 <matrix_test+0x594>
    800011aa:	4881                	li	a7,0
    800011ac:	4501                	li	a0,0
    800011ae:	4601                	li	a2,0
    800011b0:	4801                	li	a6,0
    800011b2:	4301                	li	t1,0
    800011b4:	4681                	li	a3,0
    800011b6:	a801                	j	800011c6 <matrix_test+0x6ca>
    800011b8:	0103979b          	slliw	a5,t2,0x10
    800011bc:	2685                	addiw	a3,a3,1
    800011be:	4107d51b          	sraiw	a0,a5,0x10
    800011c2:	0486f263          	bgeu	a3,s0,80001206 <matrix_test+0x70a>
    800011c6:	00d88e3b          	addw	t3,a7,a3
    800011ca:	020e1e93          	slli	t4,t3,0x20
    800011ce:	01eedb13          	srli	s6,t4,0x1e
    800011d2:	016982b3          	add	t0,s3,s6
    800011d6:	8fb2                	mv	t6,a2
    800011d8:	0002a603          	lw	a2,0(t0)
    800011dc:	1542                	slli	a0,a0,0x30
    800011de:	03055f13          	srli	t5,a0,0x30
    800011e2:	00cfa733          	slt	a4,t6,a2
    800011e6:	0106083b          	addw	a6,a2,a6
    800011ea:	00af009b          	addiw	ra,t5,10
    800011ee:	01e703bb          	addw	t2,a4,t5
    800011f2:	fd0a53e3          	bge	s4,a6,800011b8 <matrix_test+0x6bc>
    800011f6:	0100981b          	slliw	a6,ra,0x10
    800011fa:	2685                	addiw	a3,a3,1
    800011fc:	4108551b          	sraiw	a0,a6,0x10
    80001200:	4801                	li	a6,0
    80001202:	fc86e2e3          	bltu	a3,s0,800011c6 <matrix_test+0x6ca>
    80001206:	2305                	addiw	t1,t1,1
    80001208:	011408bb          	addw	a7,s0,a7
    8000120c:	fa8364e3          	bltu	t1,s0,800011b4 <matrix_test+0x6b8>
    80001210:	e8cff0ef          	jal	ra,8000089c <crc16>
    80001214:	85aa                	mv	a1,a0
    80001216:	4b01                	li	s6,0
    80001218:	4e81                	li	t4,0
    8000121a:	4e01                	li	t3,0
    8000121c:	016e02bb          	addw	t0,t3,s6
    80001220:	02029f93          	slli	t6,t0,0x20
    80001224:	01efd613          	srli	a2,t6,0x1e
    80001228:	00c98f33          	add	t5,s3,a2
    8000122c:	4501                	li	a0,0
    8000122e:	8672                	mv	a2,t3
    80001230:	4701                	li	a4,0
    80001232:	016700bb          	addw	ra,a4,s6
    80001236:	02061393          	slli	t2,a2,0x20
    8000123a:	02009793          	slli	a5,ra,0x20
    8000123e:	01f3d813          	srli	a6,t2,0x1f
    80001242:	01f7d693          	srli	a3,a5,0x1f
    80001246:	00d48333          	add	t1,s1,a3
    8000124a:	010908b3          	add	a7,s2,a6
    8000124e:	00031283          	lh	t0,0(t1)
    80001252:	00089f83          	lh	t6,0(a7)
    80001256:	2705                	addiw	a4,a4,1
    80001258:	9e21                	addw	a2,a2,s0
    8000125a:	03f280bb          	mulw	ra,t0,t6
    8000125e:	00a0853b          	addw	a0,ra,a0
    80001262:	fc8768e3          	bltu	a4,s0,80001232 <matrix_test+0x736>
    80001266:	00af2023          	sw	a0,0(t5)
    8000126a:	2e05                	addiw	t3,t3,1
    8000126c:	fa8e68e3          	bltu	t3,s0,8000121c <matrix_test+0x720>
    80001270:	2e85                	addiw	t4,t4,1
    80001272:	01640b3b          	addw	s6,s0,s6
    80001276:	fa8ee2e3          	bltu	t4,s0,8000121a <matrix_test+0x71e>
    8000127a:	4881                	li	a7,0
    8000127c:	4501                	li	a0,0
    8000127e:	4281                	li	t0,0
    80001280:	4801                	li	a6,0
    80001282:	4301                	li	t1,0
    80001284:	4681                	li	a3,0
    80001286:	a801                	j	80001296 <matrix_test+0x79a>
    80001288:	0100951b          	slliw	a0,ra,0x10
    8000128c:	2685                	addiw	a3,a3,1
    8000128e:	4105551b          	sraiw	a0,a0,0x10
    80001292:	0486f363          	bgeu	a3,s0,800012d8 <matrix_test+0x7dc>
    80001296:	00d88b3b          	addw	s6,a7,a3
    8000129a:	020b1e93          	slli	t4,s6,0x20
    8000129e:	01eede13          	srli	t3,t4,0x1e
    800012a2:	01c98f33          	add	t5,s3,t3
    800012a6:	8396                	mv	t2,t0
    800012a8:	000f2283          	lw	t0,0(t5)
    800012ac:	03051793          	slli	a5,a0,0x30
    800012b0:	0307df93          	srli	t6,a5,0x30
    800012b4:	0053a733          	slt	a4,t2,t0
    800012b8:	0102883b          	addw	a6,t0,a6
    800012bc:	00af861b          	addiw	a2,t6,10
    800012c0:	01f700bb          	addw	ra,a4,t6
    800012c4:	fd0a52e3          	bge	s4,a6,80001288 <matrix_test+0x78c>
    800012c8:	0106181b          	slliw	a6,a2,0x10
    800012cc:	2685                	addiw	a3,a3,1
    800012ce:	4108551b          	sraiw	a0,a6,0x10
    800012d2:	4801                	li	a6,0
    800012d4:	fc86e1e3          	bltu	a3,s0,80001296 <matrix_test+0x79a>
    800012d8:	2305                	addiw	t1,t1,1
    800012da:	011408bb          	addw	a7,s0,a7
    800012de:	fa8363e3          	bltu	t1,s0,80001284 <matrix_test+0x788>
    800012e2:	dbaff0ef          	jal	ra,8000089c <crc16>
    800012e6:	85aa                	mv	a1,a0
    800012e8:	4b01                	li	s6,0
    800012ea:	4e81                	li	t4,0
    800012ec:	4e01                	li	t3,0
    800012ee:	016e0f3b          	addw	t5,t3,s6
    800012f2:	020f1393          	slli	t2,t5,0x20
    800012f6:	01e3d293          	srli	t0,t2,0x1e
    800012fa:	00598fb3          	add	t6,s3,t0
    800012fe:	8672                	mv	a2,t3
    80001300:	4501                	li	a0,0
    80001302:	4681                	li	a3,0
    80001304:	016687bb          	addw	a5,a3,s6
    80001308:	02061713          	slli	a4,a2,0x20
    8000130c:	02079813          	slli	a6,a5,0x20
    80001310:	01f75093          	srli	ra,a4,0x1f
    80001314:	01f85313          	srli	t1,a6,0x1f
    80001318:	006488b3          	add	a7,s1,t1
    8000131c:	00190f33          	add	t5,s2,ra
    80001320:	00089383          	lh	t2,0(a7)
    80001324:	000f1283          	lh	t0,0(t5)
    80001328:	2685                	addiw	a3,a3,1
    8000132a:	9e21                	addw	a2,a2,s0
    8000132c:	025387bb          	mulw	a5,t2,t0
    80001330:	4027d71b          	sraiw	a4,a5,0x2
    80001334:	4057d09b          	sraiw	ra,a5,0x5
    80001338:	00f77813          	andi	a6,a4,15
    8000133c:	07f0f313          	andi	t1,ra,127
    80001340:	026808bb          	mulw	a7,a6,t1
    80001344:	00a8853b          	addw	a0,a7,a0
    80001348:	fa86eee3          	bltu	a3,s0,80001304 <matrix_test+0x808>
    8000134c:	00afa023          	sw	a0,0(t6)
    80001350:	2e05                	addiw	t3,t3,1
    80001352:	f88e6ee3          	bltu	t3,s0,800012ee <matrix_test+0x7f2>
    80001356:	2e85                	addiw	t4,t4,1
    80001358:	01640b3b          	addw	s6,s0,s6
    8000135c:	f88ee8e3          	bltu	t4,s0,800012ec <matrix_test+0x7f0>
    80001360:	4881                	li	a7,0
    80001362:	4501                	li	a0,0
    80001364:	4f01                	li	t5,0
    80001366:	4801                	li	a6,0
    80001368:	4301                	li	t1,0
    8000136a:	4681                	li	a3,0
    8000136c:	a801                	j	8000137c <matrix_test+0x880>
    8000136e:	0107109b          	slliw	ra,a4,0x10
    80001372:	2685                	addiw	a3,a3,1
    80001374:	4100d51b          	sraiw	a0,ra,0x10
    80001378:	0486f363          	bgeu	a3,s0,800013be <matrix_test+0x8c2>
    8000137c:	00d8893b          	addw	s2,a7,a3
    80001380:	02091b13          	slli	s6,s2,0x20
    80001384:	01eb5e93          	srli	t4,s6,0x1e
    80001388:	01d98e33          	add	t3,s3,t4
    8000138c:	8ffa                	mv	t6,t5
    8000138e:	000e2f03          	lw	t5,0(t3)
    80001392:	03051393          	slli	t2,a0,0x30
    80001396:	0303d293          	srli	t0,t2,0x30
    8000139a:	01efa7b3          	slt	a5,t6,t5
    8000139e:	010f083b          	addw	a6,t5,a6
    800013a2:	00a2861b          	addiw	a2,t0,10
    800013a6:	0057873b          	addw	a4,a5,t0
    800013aa:	fd0a52e3          	bge	s4,a6,8000136e <matrix_test+0x872>
    800013ae:	0106181b          	slliw	a6,a2,0x10
    800013b2:	2685                	addiw	a3,a3,1
    800013b4:	4108551b          	sraiw	a0,a6,0x10
    800013b8:	4801                	li	a6,0
    800013ba:	fc86e1e3          	bltu	a3,s0,8000137c <matrix_test+0x880>
    800013be:	2305                	addiw	t1,t1,1
    800013c0:	011408bb          	addw	a7,s0,a7
    800013c4:	fa8363e3          	bltu	t1,s0,8000136a <matrix_test+0x86e>
    800013c8:	cd4ff0ef          	jal	ra,8000089c <crc16>
    800013cc:	4981                	li	s3,0
    800013ce:	4a01                	li	s4,0
    800013d0:	4581                	li	a1,0
    800013d2:	0135893b          	addw	s2,a1,s3
    800013d6:	02091b13          	slli	s6,s2,0x20
    800013da:	01fb5e93          	srli	t4,s6,0x1f
    800013de:	01d48e33          	add	t3,s1,t4
    800013e2:	000e5f83          	lhu	t6,0(t3)
    800013e6:	2585                	addiw	a1,a1,1
    800013e8:	415f8f3b          	subw	t5,t6,s5
    800013ec:	01ee1023          	sh	t5,0(t3)
    800013f0:	fe85e1e3          	bltu	a1,s0,800013d2 <matrix_test+0x8d6>
    800013f4:	2a05                	addiw	s4,s4,1 # fffffffffffff001 <_pmem_end+0xffffffff77fff001>
    800013f6:	013409bb          	addw	s3,s0,s3
    800013fa:	fc8a6be3          	bltu	s4,s0,800013d0 <matrix_test+0x8d4>
    800013fe:	0105141b          	slliw	s0,a0,0x10
    80001402:	70e2                	ld	ra,56(sp)
    80001404:	4104551b          	sraiw	a0,s0,0x10
    80001408:	7442                	ld	s0,48(sp)
    8000140a:	74a2                	ld	s1,40(sp)
    8000140c:	7902                	ld	s2,32(sp)
    8000140e:	69e2                	ld	s3,24(sp)
    80001410:	6a42                	ld	s4,16(sp)
    80001412:	6aa2                	ld	s5,8(sp)
    80001414:	6b02                	ld	s6,0(sp)
    80001416:	6121                	addi	sp,sp,64
    80001418:	8082                	ret
    8000141a:	4581                	li	a1,0
    8000141c:	c80ff0ef          	jal	ra,8000089c <crc16>
    80001420:	85aa                	mv	a1,a0
    80001422:	4501                	li	a0,0
    80001424:	c78ff0ef          	jal	ra,8000089c <crc16>
    80001428:	85aa                	mv	a1,a0
    8000142a:	4501                	li	a0,0
    8000142c:	c70ff0ef          	jal	ra,8000089c <crc16>
    80001430:	85aa                	mv	a1,a0
    80001432:	4501                	li	a0,0
    80001434:	c68ff0ef          	jal	ra,8000089c <crc16>
    80001438:	b7d9                	j	800013fe <matrix_test+0x902>

000000008000143a <core_bench_matrix>:
    8000143a:	1141                	addi	sp,sp,-16
    8000143c:	e022                	sd	s0,0(sp)
    8000143e:	6914                	ld	a3,16(a0)
    80001440:	8432                	mv	s0,a2
    80001442:	872e                	mv	a4,a1
    80001444:	6510                	ld	a2,8(a0)
    80001446:	6d0c                	ld	a1,24(a0)
    80001448:	4108                	lw	a0,0(a0)
    8000144a:	e406                	sd	ra,8(sp)
    8000144c:	eb0ff0ef          	jal	ra,80000afc <matrix_test>
    80001450:	85a2                	mv	a1,s0
    80001452:	6402                	ld	s0,0(sp)
    80001454:	60a2                	ld	ra,8(sp)
    80001456:	0141                	addi	sp,sp,16
    80001458:	c44ff06f          	j	8000089c <crc16>

000000008000145c <core_init_matrix>:
    8000145c:	1101                	addi	sp,sp,-32
    8000145e:	ec22                	sd	s0,24(sp)
    80001460:	e826                	sd	s1,16(sp)
    80001462:	e44a                	sd	s2,8(sp)
    80001464:	e04e                	sd	s3,0(sp)
    80001466:	882a                	mv	a6,a0
    80001468:	8436                	mv	s0,a3
    8000146a:	e211                	bnez	a2,8000146e <core_init_matrix+0x12>
    8000146c:	4605                	li	a2,1
    8000146e:	15fd                	addi	a1,a1,-1
    80001470:	ffc5f313          	andi	t1,a1,-4
    80001474:	00430e93          	addi	t4,t1,4
    80001478:	4681                	li	a3,0
    8000147a:	0c080f63          	beqz	a6,80001558 <core_init_matrix+0xfc>
    8000147e:	0016871b          	addiw	a4,a3,1
    80001482:	02e707bb          	mulw	a5,a4,a4
    80001486:	0006851b          	sext.w	a0,a3
    8000148a:	0007069b          	sext.w	a3,a4
    8000148e:	0037929b          	slliw	t0,a5,0x3
    80001492:	ff02e6e3          	bltu	t0,a6,8000147e <core_init_matrix+0x22>
    80001496:	02a503bb          	mulw	t2,a0,a0
    8000149a:	0005091b          	sext.w	s2,a0
    8000149e:	02039493          	slli	s1,t2,0x20
    800014a2:	01f4d693          	srli	a3,s1,0x1f
    800014a6:	00de8333          	add	t1,t4,a3
    800014aa:	cd45                	beqz	a0,80001562 <core_init_matrix+0x106>
    800014ac:	6f41                	lui	t5,0x10
    800014ae:	4381                	li	t2,0
    800014b0:	4281                	li	t0,0
    800014b2:	4f85                	li	t6,1
    800014b4:	1f7d                	addi	t5,t5,-1 # ffff <_start-0x7fff0001>
    800014b6:	fff5049b          	addiw	s1,a0,-1
    800014ba:	85fe                	mv	a1,t6
    800014bc:	4881                	li	a7,0
    800014be:	41f38e3b          	subw	t3,t2,t6
    800014c2:	02b6063b          	mulw	a2,a2,a1
    800014c6:	00be083b          	addw	a6,t3,a1
    800014ca:	02081713          	slli	a4,a6,0x20
    800014ce:	03059993          	slli	s3,a1,0x30
    800014d2:	01f75813          	srli	a6,a4,0x1f
    800014d6:	0309d793          	srli	a5,s3,0x30
    800014da:	010e8733          	add	a4,t4,a6
    800014de:	010309b3          	add	s3,t1,a6
    800014e2:	2885                	addiw	a7,a7,1
    800014e4:	2585                	addiw	a1,a1,1
    800014e6:	41f6581b          	sraiw	a6,a2,0x1f
    800014ea:	0108581b          	srliw	a6,a6,0x10
    800014ee:	0106063b          	addw	a2,a2,a6
    800014f2:	01e67633          	and	a2,a2,t5
    800014f6:	4106063b          	subw	a2,a2,a6
    800014fa:	00f6083b          	addw	a6,a2,a5
    800014fe:	1842                	slli	a6,a6,0x30
    80001500:	03085813          	srli	a6,a6,0x30
    80001504:	00f807bb          	addw	a5,a6,a5
    80001508:	01099023          	sh	a6,0(s3)
    8000150c:	0ff7f993          	zext.b	s3,a5
    80001510:	01371023          	sh	s3,0(a4)
    80001514:	faa8e7e3          	bltu	a7,a0,800014c2 <core_init_matrix+0x66>
    80001518:	2f85                	addiw	t6,t6,1
    8000151a:	4581                	li	a1,0
    8000151c:	c111                	beqz	a0,80001520 <core_init_matrix+0xc4>
    8000151e:	85a6                	mv	a1,s1
    80001520:	2285                	addiw	t0,t0,1
    80001522:	01f58fbb          	addw	t6,a1,t6
    80001526:	007503bb          	addw	t2,a0,t2
    8000152a:	f8a2e8e3          	bltu	t0,a0,800014ba <core_init_matrix+0x5e>
    8000152e:	969a                	add	a3,a3,t1
    80001530:	fff68393          	addi	t2,a3,-1
    80001534:	ffc3f293          	andi	t0,t2,-4
    80001538:	00428f13          	addi	t5,t0,4
    8000153c:	01242023          	sw	s2,0(s0)
    80001540:	01d43423          	sd	t4,8(s0)
    80001544:	00643823          	sd	t1,16(s0)
    80001548:	01e43c23          	sd	t5,24(s0)
    8000154c:	6462                	ld	s0,24(sp)
    8000154e:	64c2                	ld	s1,16(sp)
    80001550:	6922                	ld	s2,8(sp)
    80001552:	6982                	ld	s3,0(sp)
    80001554:	6105                	addi	sp,sp,32
    80001556:	8082                	ret
    80001558:	0319                	addi	t1,t1,6
    8000155a:	597d                	li	s2,-1
    8000155c:	557d                	li	a0,-1
    8000155e:	4689                	li	a3,2
    80001560:	b7b1                	j	800014ac <core_init_matrix+0x50>
    80001562:	4901                	li	s2,0
    80001564:	b7e9                	j	8000152e <core_init_matrix+0xd2>

0000000080001566 <matrix_sum>:
    80001566:	8eaa                	mv	t4,a0
    80001568:	20050963          	beqz	a0,8000177a <matrix_sum+0x214>
    8000156c:	832a                	mv	t1,a0
    8000156e:	0006089b          	sext.w	a7,a2
    80001572:	4e01                	li	t3,0
    80001574:	4f01                	li	t5,0
    80001576:	4501                	li	a0,0
    80001578:	4801                	li	a6,0
    8000157a:	4781                	li	a5,0
    8000157c:	41c30733          	sub	a4,t1,t3
    80001580:	00377293          	andi	t0,a4,3
    80001584:	8672                	mv	a2,t3
    80001586:	14028e63          	beqz	t0,800016e2 <matrix_sum+0x17c>
    8000158a:	4685                	li	a3,1
    8000158c:	06d28663          	beq	t0,a3,800015f8 <matrix_sum+0x92>
    80001590:	4389                	li	t2,2
    80001592:	02728b63          	beq	t0,t2,800015c8 <matrix_sum+0x62>
    80001596:	020e1613          	slli	a2,t3,0x20
    8000159a:	01e65f93          	srli	t6,a2,0x1e
    8000159e:	01f58733          	add	a4,a1,t6
    800015a2:	82c2                	mv	t0,a6
    800015a4:	00072803          	lw	a6,0(a4)
    800015a8:	1542                	slli	a0,a0,0x30
    800015aa:	03055693          	srli	a3,a0,0x30
    800015ae:	010787bb          	addw	a5,a5,a6
    800015b2:	1af8db63          	bge	a7,a5,80001768 <matrix_sum+0x202>
    800015b6:	00a6879b          	addiw	a5,a3,10
    800015ba:	0107971b          	slliw	a4,a5,0x10
    800015be:	4107551b          	sraiw	a0,a4,0x10
    800015c2:	4781                	li	a5,0
    800015c4:	001e061b          	addiw	a2,t3,1
    800015c8:	02061293          	slli	t0,a2,0x20
    800015cc:	01e2d693          	srli	a3,t0,0x1e
    800015d0:	00d583b3          	add	t2,a1,a3
    800015d4:	8fc2                	mv	t6,a6
    800015d6:	0003a803          	lw	a6,0(t2)
    800015da:	1542                	slli	a0,a0,0x30
    800015dc:	03055713          	srli	a4,a0,0x30
    800015e0:	010787bb          	addw	a5,a5,a6
    800015e4:	16f8d963          	bge	a7,a5,80001756 <matrix_sum+0x1f0>
    800015e8:	00a7079b          	addiw	a5,a4,10
    800015ec:	01079f9b          	slliw	t6,a5,0x10
    800015f0:	410fd51b          	sraiw	a0,t6,0x10
    800015f4:	4781                	li	a5,0
    800015f6:	2605                	addiw	a2,a2,1
    800015f8:	02061713          	slli	a4,a2,0x20
    800015fc:	01e75293          	srli	t0,a4,0x1e
    80001600:	005586b3          	add	a3,a1,t0
    80001604:	83c2                	mv	t2,a6
    80001606:	0006a803          	lw	a6,0(a3)
    8000160a:	1542                	slli	a0,a0,0x30
    8000160c:	03055713          	srli	a4,a0,0x30
    80001610:	010787bb          	addw	a5,a5,a6
    80001614:	12f8d863          	bge	a7,a5,80001744 <matrix_sum+0x1de>
    80001618:	00a7079b          	addiw	a5,a4,10
    8000161c:	0107939b          	slliw	t2,a5,0x10
    80001620:	4103d51b          	sraiw	a0,t2,0x10
    80001624:	4781                	li	a5,0
    80001626:	2605                	addiw	a2,a2,1
    80001628:	0ac31d63          	bne	t1,a2,800016e2 <matrix_sum+0x17c>
    8000162c:	2f05                	addiw	t5,t5,1
    8000162e:	01d3033b          	addw	t1,t1,t4
    80001632:	01ce8e3b          	addw	t3,t4,t3
    80001636:	f5ee93e3          	bne	t4,t5,8000157c <matrix_sum+0x16>
    8000163a:	8082                	ret
    8000163c:	00d82833          	slt	a6,a6,a3
    80001640:	0078073b          	addw	a4,a6,t2
    80001644:	01071f9b          	slliw	t6,a4,0x10
    80001648:	410fd39b          	sraiw	t2,t6,0x10
    8000164c:	2605                	addiw	a2,a2,1
    8000164e:	02061513          	slli	a0,a2,0x20
    80001652:	01e55813          	srli	a6,a0,0x1e
    80001656:	01058733          	add	a4,a1,a6
    8000165a:	00072f83          	lw	t6,0(a4)
    8000165e:	03039293          	slli	t0,t2,0x30
    80001662:	0302d393          	srli	t2,t0,0x30
    80001666:	01f787bb          	addw	a5,a5,t6
    8000166a:	0cf8d463          	bge	a7,a5,80001732 <matrix_sum+0x1cc>
    8000166e:	00a3829b          	addiw	t0,t2,10
    80001672:	0102939b          	slliw	t2,t0,0x10
    80001676:	4103d71b          	sraiw	a4,t2,0x10
    8000167a:	4781                	li	a5,0
    8000167c:	2605                	addiw	a2,a2,1
    8000167e:	02061693          	slli	a3,a2,0x20
    80001682:	01e6d513          	srli	a0,a3,0x1e
    80001686:	00a58833          	add	a6,a1,a0
    8000168a:	00082283          	lw	t0,0(a6)
    8000168e:	1742                	slli	a4,a4,0x30
    80001690:	03075393          	srli	t2,a4,0x30
    80001694:	005787bb          	addw	a5,a5,t0
    80001698:	08f8d463          	bge	a7,a5,80001720 <matrix_sum+0x1ba>
    8000169c:	00a3881b          	addiw	a6,t2,10
    800016a0:	0108139b          	slliw	t2,a6,0x10
    800016a4:	4103d71b          	sraiw	a4,t2,0x10
    800016a8:	4781                	li	a5,0
    800016aa:	00160f9b          	addiw	t6,a2,1
    800016ae:	020f9613          	slli	a2,t6,0x20
    800016b2:	01e65693          	srli	a3,a2,0x1e
    800016b6:	00d58533          	add	a0,a1,a3
    800016ba:	00052803          	lw	a6,0(a0)
    800016be:	1742                	slli	a4,a4,0x30
    800016c0:	03075393          	srli	t2,a4,0x30
    800016c4:	010787bb          	addw	a5,a5,a6
    800016c8:	04f8d363          	bge	a7,a5,8000170e <matrix_sum+0x1a8>
    800016cc:	00a3851b          	addiw	a0,t2,10
    800016d0:	0105171b          	slliw	a4,a0,0x10
    800016d4:	4107551b          	sraiw	a0,a4,0x10
    800016d8:	4781                	li	a5,0
    800016da:	001f861b          	addiw	a2,t6,1
    800016de:	f4c307e3          	beq	t1,a2,8000162c <matrix_sum+0xc6>
    800016e2:	02061713          	slli	a4,a2,0x20
    800016e6:	01e75f93          	srli	t6,a4,0x1e
    800016ea:	01f582b3          	add	t0,a1,t6
    800016ee:	0002a683          	lw	a3,0(t0)
    800016f2:	1542                	slli	a0,a0,0x30
    800016f4:	03055393          	srli	t2,a0,0x30
    800016f8:	9fb5                	addw	a5,a5,a3
    800016fa:	f4f8d1e3          	bge	a7,a5,8000163c <matrix_sum+0xd6>
    800016fe:	00a3879b          	addiw	a5,t2,10
    80001702:	0107929b          	slliw	t0,a5,0x10
    80001706:	4102d39b          	sraiw	t2,t0,0x10
    8000170a:	4781                	li	a5,0
    8000170c:	b781                	j	8000164c <matrix_sum+0xe6>
    8000170e:	0102a2b3          	slt	t0,t0,a6
    80001712:	0072863b          	addw	a2,t0,t2
    80001716:	0106169b          	slliw	a3,a2,0x10
    8000171a:	4106d51b          	sraiw	a0,a3,0x10
    8000171e:	bf75                	j	800016da <matrix_sum+0x174>
    80001720:	005fafb3          	slt	t6,t6,t0
    80001724:	007f86bb          	addw	a3,t6,t2
    80001728:	0106951b          	slliw	a0,a3,0x10
    8000172c:	4105571b          	sraiw	a4,a0,0x10
    80001730:	bfad                	j	800016aa <matrix_sum+0x144>
    80001732:	01f6a6b3          	slt	a3,a3,t6
    80001736:	0076853b          	addw	a0,a3,t2
    8000173a:	0105181b          	slliw	a6,a0,0x10
    8000173e:	4108571b          	sraiw	a4,a6,0x10
    80001742:	bf2d                	j	8000167c <matrix_sum+0x116>
    80001744:	0103afb3          	slt	t6,t2,a6
    80001748:	00ef82bb          	addw	t0,t6,a4
    8000174c:	0102969b          	slliw	a3,t0,0x10
    80001750:	4106d51b          	sraiw	a0,a3,0x10
    80001754:	bdc9                	j	80001626 <matrix_sum+0xc0>
    80001756:	010fa2b3          	slt	t0,t6,a6
    8000175a:	00e286bb          	addw	a3,t0,a4
    8000175e:	0106939b          	slliw	t2,a3,0x10
    80001762:	4103d51b          	sraiw	a0,t2,0x10
    80001766:	bd41                	j	800015f6 <matrix_sum+0x90>
    80001768:	0102a3b3          	slt	t2,t0,a6
    8000176c:	00d3863b          	addw	a2,t2,a3
    80001770:	01061f9b          	slliw	t6,a2,0x10
    80001774:	410fd51b          	sraiw	a0,t6,0x10
    80001778:	b5b1                	j	800015c4 <matrix_sum+0x5e>
    8000177a:	4501                	li	a0,0
    8000177c:	8082                	ret

000000008000177e <matrix_mul_const>:
    8000177e:	14050463          	beqz	a0,800018c6 <matrix_mul_const+0x148>
    80001782:	1141                	addi	sp,sp,-16
    80001784:	e422                	sd	s0,8(sp)
    80001786:	0006831b          	sext.w	t1,a3
    8000178a:	8f2a                	mv	t5,a0
    8000178c:	4f81                	li	t6,0
    8000178e:	4281                	li	t0,0
    80001790:	41ff0733          	sub	a4,t5,t6
    80001794:	00377393          	andi	t2,a4,3
    80001798:	87fe                	mv	a5,t6
    8000179a:	08038463          	beqz	t2,80001822 <matrix_mul_const+0xa4>
    8000179e:	4685                	li	a3,1
    800017a0:	04d38c63          	beq	t2,a3,800017f8 <matrix_mul_const+0x7a>
    800017a4:	4409                	li	s0,2
    800017a6:	02838663          	beq	t2,s0,800017d2 <matrix_mul_const+0x54>
    800017aa:	020f9793          	slli	a5,t6,0x20
    800017ae:	0207d813          	srli	a6,a5,0x20
    800017b2:	00181893          	slli	a7,a6,0x1
    800017b6:	01160e33          	add	t3,a2,a7
    800017ba:	000e1e83          	lh	t4,0(t3)
    800017be:	00281713          	slli	a4,a6,0x2
    800017c2:	00e583b3          	add	t2,a1,a4
    800017c6:	026e86bb          	mulw	a3,t4,t1
    800017ca:	001f879b          	addiw	a5,t6,1
    800017ce:	00d3a023          	sw	a3,0(t2)
    800017d2:	02079413          	slli	s0,a5,0x20
    800017d6:	02045813          	srli	a6,s0,0x20
    800017da:	00181893          	slli	a7,a6,0x1
    800017de:	01160e33          	add	t3,a2,a7
    800017e2:	000e1e83          	lh	t4,0(t3)
    800017e6:	00281713          	slli	a4,a6,0x2
    800017ea:	00e583b3          	add	t2,a1,a4
    800017ee:	026e86bb          	mulw	a3,t4,t1
    800017f2:	2785                	addiw	a5,a5,1
    800017f4:	00d3a023          	sw	a3,0(t2)
    800017f8:	02079413          	slli	s0,a5,0x20
    800017fc:	02045813          	srli	a6,s0,0x20
    80001800:	00181893          	slli	a7,a6,0x1
    80001804:	01160e33          	add	t3,a2,a7
    80001808:	000e1e83          	lh	t4,0(t3)
    8000180c:	00281713          	slli	a4,a6,0x2
    80001810:	00e583b3          	add	t2,a1,a4
    80001814:	026e86bb          	mulw	a3,t4,t1
    80001818:	2785                	addiw	a5,a5,1
    8000181a:	00d3a023          	sw	a3,0(t2)
    8000181e:	08ff0a63          	beq	t5,a5,800018b2 <matrix_mul_const+0x134>
    80001822:	00178e1b          	addiw	t3,a5,1
    80001826:	02079413          	slli	s0,a5,0x20
    8000182a:	001e0e9b          	addiw	t4,t3,1
    8000182e:	02045893          	srli	a7,s0,0x20
    80001832:	020e1813          	slli	a6,t3,0x20
    80001836:	00189713          	slli	a4,a7,0x1
    8000183a:	020e9393          	slli	t2,t4,0x20
    8000183e:	02085813          	srli	a6,a6,0x20
    80001842:	001e879b          	addiw	a5,t4,1
    80001846:	0203d693          	srli	a3,t2,0x20
    8000184a:	00181e13          	slli	t3,a6,0x1
    8000184e:	02079e93          	slli	t4,a5,0x20
    80001852:	00e60433          	add	s0,a2,a4
    80001856:	00041403          	lh	s0,0(s0)
    8000185a:	020ed713          	srli	a4,t4,0x20
    8000185e:	01c603b3          	add	t2,a2,t3
    80001862:	00169e13          	slli	t3,a3,0x1
    80001866:	00039383          	lh	t2,0(t2)
    8000186a:	01c60eb3          	add	t4,a2,t3
    8000186e:	00171e13          	slli	t3,a4,0x1
    80001872:	000e9e83          	lh	t4,0(t4)
    80001876:	9e32                	add	t3,t3,a2
    80001878:	000e1e03          	lh	t3,0(t3)
    8000187c:	0264043b          	mulw	s0,s0,t1
    80001880:	088a                	slli	a7,a7,0x2
    80001882:	98ae                	add	a7,a7,a1
    80001884:	080a                	slli	a6,a6,0x2
    80001886:	982e                	add	a6,a6,a1
    80001888:	068a                	slli	a3,a3,0x2
    8000188a:	96ae                	add	a3,a3,a1
    8000188c:	070a                	slli	a4,a4,0x2
    8000188e:	972e                	add	a4,a4,a1
    80001890:	2785                	addiw	a5,a5,1
    80001892:	026383bb          	mulw	t2,t2,t1
    80001896:	0088a023          	sw	s0,0(a7)
    8000189a:	026e8ebb          	mulw	t4,t4,t1
    8000189e:	00782023          	sw	t2,0(a6)
    800018a2:	026e0e3b          	mulw	t3,t3,t1
    800018a6:	01d6a023          	sw	t4,0(a3)
    800018aa:	01c72023          	sw	t3,0(a4)
    800018ae:	f6ff1ae3          	bne	t5,a5,80001822 <matrix_mul_const+0xa4>
    800018b2:	2285                	addiw	t0,t0,1
    800018b4:	01f50fbb          	addw	t6,a0,t6
    800018b8:	01e50f3b          	addw	t5,a0,t5
    800018bc:	ec551ae3          	bne	a0,t0,80001790 <matrix_mul_const+0x12>
    800018c0:	6422                	ld	s0,8(sp)
    800018c2:	0141                	addi	sp,sp,16
    800018c4:	8082                	ret
    800018c6:	8082                	ret

00000000800018c8 <matrix_add_const>:
    800018c8:	1e050463          	beqz	a0,80001ab0 <matrix_add_const+0x1e8>
    800018cc:	03061713          	slli	a4,a2,0x30
    800018d0:	9341                	srli	a4,a4,0x30
    800018d2:	862a                	mv	a2,a0
    800018d4:	4881                	li	a7,0
    800018d6:	4301                	li	t1,0
    800018d8:	411606b3          	sub	a3,a2,a7
    800018dc:	0076f293          	andi	t0,a3,7
    800018e0:	87c6                	mv	a5,a7
    800018e2:	0e028263          	beqz	t0,800019c6 <matrix_add_const+0xfe>
    800018e6:	4805                	li	a6,1
    800018e8:	0d028063          	beq	t0,a6,800019a8 <matrix_add_const+0xe0>
    800018ec:	4389                	li	t2,2
    800018ee:	0a728063          	beq	t0,t2,8000198e <matrix_add_const+0xc6>
    800018f2:	4e0d                	li	t3,3
    800018f4:	09c28063          	beq	t0,t3,80001974 <matrix_add_const+0xac>
    800018f8:	4e91                	li	t4,4
    800018fa:	07d28063          	beq	t0,t4,8000195a <matrix_add_const+0x92>
    800018fe:	4f15                	li	t5,5
    80001900:	05e28063          	beq	t0,t5,80001940 <matrix_add_const+0x78>
    80001904:	4f99                	li	t6,6
    80001906:	03f28063          	beq	t0,t6,80001926 <matrix_add_const+0x5e>
    8000190a:	02089793          	slli	a5,a7,0x20
    8000190e:	01f7d693          	srli	a3,a5,0x1f
    80001912:	00d582b3          	add	t0,a1,a3
    80001916:	0002d803          	lhu	a6,0(t0)
    8000191a:	0018879b          	addiw	a5,a7,1
    8000191e:	00e803bb          	addw	t2,a6,a4
    80001922:	00729023          	sh	t2,0(t0)
    80001926:	02079e13          	slli	t3,a5,0x20
    8000192a:	01fe5e93          	srli	t4,t3,0x1f
    8000192e:	01d58f33          	add	t5,a1,t4
    80001932:	000f5f83          	lhu	t6,0(t5)
    80001936:	2785                	addiw	a5,a5,1
    80001938:	00ef86bb          	addw	a3,t6,a4
    8000193c:	00df1023          	sh	a3,0(t5)
    80001940:	02079293          	slli	t0,a5,0x20
    80001944:	01f2d813          	srli	a6,t0,0x1f
    80001948:	010583b3          	add	t2,a1,a6
    8000194c:	0003de03          	lhu	t3,0(t2)
    80001950:	2785                	addiw	a5,a5,1
    80001952:	00ee0ebb          	addw	t4,t3,a4
    80001956:	01d39023          	sh	t4,0(t2)
    8000195a:	02079f13          	slli	t5,a5,0x20
    8000195e:	01ff5f93          	srli	t6,t5,0x1f
    80001962:	01f586b3          	add	a3,a1,t6
    80001966:	0006d283          	lhu	t0,0(a3)
    8000196a:	2785                	addiw	a5,a5,1
    8000196c:	00e2883b          	addw	a6,t0,a4
    80001970:	01069023          	sh	a6,0(a3)
    80001974:	02079393          	slli	t2,a5,0x20
    80001978:	01f3de13          	srli	t3,t2,0x1f
    8000197c:	01c58eb3          	add	t4,a1,t3
    80001980:	000edf03          	lhu	t5,0(t4)
    80001984:	2785                	addiw	a5,a5,1
    80001986:	00ef0fbb          	addw	t6,t5,a4
    8000198a:	01fe9023          	sh	t6,0(t4)
    8000198e:	02079693          	slli	a3,a5,0x20
    80001992:	01f6d293          	srli	t0,a3,0x1f
    80001996:	005583b3          	add	t2,a1,t0
    8000199a:	0003d803          	lhu	a6,0(t2)
    8000199e:	2785                	addiw	a5,a5,1
    800019a0:	00e80e3b          	addw	t3,a6,a4
    800019a4:	01c39023          	sh	t3,0(t2)
    800019a8:	02079e93          	slli	t4,a5,0x20
    800019ac:	01fedf13          	srli	t5,t4,0x1f
    800019b0:	01e58fb3          	add	t6,a1,t5
    800019b4:	000fd683          	lhu	a3,0(t6)
    800019b8:	2785                	addiw	a5,a5,1
    800019ba:	00e682bb          	addw	t0,a3,a4
    800019be:	005f9023          	sh	t0,0(t6)
    800019c2:	0ef60163          	beq	a2,a5,80001aa4 <matrix_add_const+0x1dc>
    800019c6:	02079393          	slli	t2,a5,0x20
    800019ca:	01f3d813          	srli	a6,t2,0x1f
    800019ce:	01058f33          	add	t5,a1,a6
    800019d2:	000f5e03          	lhu	t3,0(t5)
    800019d6:	00178f9b          	addiw	t6,a5,1
    800019da:	020f9e93          	slli	t4,t6,0x20
    800019de:	01fed693          	srli	a3,t4,0x1f
    800019e2:	00ee07bb          	addw	a5,t3,a4
    800019e6:	00ff1023          	sh	a5,0(t5)
    800019ea:	00d582b3          	add	t0,a1,a3
    800019ee:	0002d383          	lhu	t2,0(t0)
    800019f2:	001f8f1b          	addiw	t5,t6,1
    800019f6:	020f1813          	slli	a6,t5,0x20
    800019fa:	01f85f93          	srli	t6,a6,0x1f
    800019fe:	00e38e3b          	addw	t3,t2,a4
    80001a02:	01c29023          	sh	t3,0(t0)
    80001a06:	01f582b3          	add	t0,a1,t6
    80001a0a:	0002d383          	lhu	t2,0(t0)
    80001a0e:	001f079b          	addiw	a5,t5,1
    80001a12:	02079e93          	slli	t4,a5,0x20
    80001a16:	01fed693          	srli	a3,t4,0x1f
    80001a1a:	00e38f3b          	addw	t5,t2,a4
    80001a1e:	01e29023          	sh	t5,0(t0)
    80001a22:	00d58fb3          	add	t6,a1,a3
    80001a26:	000fde03          	lhu	t3,0(t6)
    80001a2a:	0017829b          	addiw	t0,a5,1
    80001a2e:	02029813          	slli	a6,t0,0x20
    80001a32:	01f85393          	srli	t2,a6,0x1f
    80001a36:	00ee07bb          	addw	a5,t3,a4
    80001a3a:	00ff9023          	sh	a5,0(t6)
    80001a3e:	00758f33          	add	t5,a1,t2
    80001a42:	000f5f83          	lhu	t6,0(t5)
    80001a46:	2285                	addiw	t0,t0,1
    80001a48:	02029e93          	slli	t4,t0,0x20
    80001a4c:	01fed693          	srli	a3,t4,0x1f
    80001a50:	00ef8e3b          	addw	t3,t6,a4
    80001a54:	01cf1023          	sh	t3,0(t5)
    80001a58:	00d583b3          	add	t2,a1,a3
    80001a5c:	0003df03          	lhu	t5,0(t2)
    80001a60:	0012879b          	addiw	a5,t0,1
    80001a64:	02079813          	slli	a6,a5,0x20
    80001a68:	00ef02bb          	addw	t0,t5,a4
    80001a6c:	01f85f93          	srli	t6,a6,0x1f
    80001a70:	00539023          	sh	t0,0(t2)
    80001a74:	01f586b3          	add	a3,a1,t6
    80001a78:	0006de03          	lhu	t3,0(a3)
    80001a7c:	2785                	addiw	a5,a5,1
    80001a7e:	02079e93          	slli	t4,a5,0x20
    80001a82:	01fedf13          	srli	t5,t4,0x1f
    80001a86:	00ee03bb          	addw	t2,t3,a4
    80001a8a:	00769023          	sh	t2,0(a3)
    80001a8e:	01e58fb3          	add	t6,a1,t5
    80001a92:	000fd683          	lhu	a3,0(t6)
    80001a96:	2785                	addiw	a5,a5,1
    80001a98:	00e682bb          	addw	t0,a3,a4
    80001a9c:	005f9023          	sh	t0,0(t6)
    80001aa0:	f2f613e3          	bne	a2,a5,800019c6 <matrix_add_const+0xfe>
    80001aa4:	2305                	addiw	t1,t1,1
    80001aa6:	011508bb          	addw	a7,a0,a7
    80001aaa:	9e29                	addw	a2,a2,a0
    80001aac:	e26516e3          	bne	a0,t1,800018d8 <matrix_add_const+0x10>
    80001ab0:	8082                	ret

0000000080001ab2 <matrix_mul_vect>:
    80001ab2:	14050563          	beqz	a0,80001bfc <matrix_mul_vect+0x14a>
    80001ab6:	fff50f9b          	addiw	t6,a0,-1
    80001aba:	020f9793          	slli	a5,t6,0x20
    80001abe:	1101                	addi	sp,sp,-32
    80001ac0:	01e7d293          	srli	t0,a5,0x1e
    80001ac4:	00458313          	addi	t1,a1,4
    80001ac8:	ec22                	sd	s0,24(sp)
    80001aca:	e826                	sd	s1,16(sp)
    80001acc:	e44a                	sd	s2,8(sp)
    80001ace:	8f2e                	mv	t5,a1
    80001ad0:	00628fb3          	add	t6,t0,t1
    80001ad4:	8e2a                	mv	t3,a0
    80001ad6:	4e81                	li	t4,0
    80001ad8:	41de05b3          	sub	a1,t3,t4
    80001adc:	0035f393          	andi	t2,a1,3
    80001ae0:	8736                	mv	a4,a3
    80001ae2:	87f6                	mv	a5,t4
    80001ae4:	4281                	li	t0,0
    80001ae6:	06038a63          	beqz	t2,80001b5a <matrix_mul_vect+0xa8>
    80001aea:	4805                	li	a6,1
    80001aec:	05038563          	beq	t2,a6,80001b36 <matrix_mul_vect+0x84>
    80001af0:	4409                	li	s0,2
    80001af2:	02838263          	beq	t2,s0,80001b16 <matrix_mul_vect+0x64>
    80001af6:	020e9713          	slli	a4,t4,0x20
    80001afa:	01f75493          	srli	s1,a4,0x1f
    80001afe:	009608b3          	add	a7,a2,s1
    80001b02:	00089903          	lh	s2,0(a7)
    80001b06:	00069283          	lh	t0,0(a3)
    80001b0a:	001e879b          	addiw	a5,t4,1
    80001b0e:	00268713          	addi	a4,a3,2
    80001b12:	025902bb          	mulw	t0,s2,t0
    80001b16:	02079313          	slli	t1,a5,0x20
    80001b1a:	01f35593          	srli	a1,t1,0x1f
    80001b1e:	00b603b3          	add	t2,a2,a1
    80001b22:	00071803          	lh	a6,0(a4)
    80001b26:	00039403          	lh	s0,0(t2)
    80001b2a:	2785                	addiw	a5,a5,1
    80001b2c:	0709                	addi	a4,a4,2
    80001b2e:	030404bb          	mulw	s1,s0,a6
    80001b32:	005482bb          	addw	t0,s1,t0
    80001b36:	02079893          	slli	a7,a5,0x20
    80001b3a:	01f8d913          	srli	s2,a7,0x1f
    80001b3e:	01260333          	add	t1,a2,s2
    80001b42:	00071383          	lh	t2,0(a4)
    80001b46:	00031583          	lh	a1,0(t1)
    80001b4a:	2785                	addiw	a5,a5,1
    80001b4c:	0709                	addi	a4,a4,2
    80001b4e:	0275883b          	mulw	a6,a1,t2
    80001b52:	005802bb          	addw	t0,a6,t0
    80001b56:	08fe0563          	beq	t3,a5,80001be0 <matrix_mul_vect+0x12e>
    80001b5a:	0017841b          	addiw	s0,a5,1
    80001b5e:	02079493          	slli	s1,a5,0x20
    80001b62:	01f4d893          	srli	a7,s1,0x1f
    80001b66:	0014091b          	addiw	s2,s0,1
    80001b6a:	02041313          	slli	t1,s0,0x20
    80001b6e:	0019039b          	addiw	t2,s2,1
    80001b72:	01f35793          	srli	a5,t1,0x1f
    80001b76:	02091413          	slli	s0,s2,0x20
    80001b7a:	011605b3          	add	a1,a2,a7
    80001b7e:	00071303          	lh	t1,0(a4)
    80001b82:	01f45493          	srli	s1,s0,0x1f
    80001b86:	00059883          	lh	a7,0(a1)
    80001b8a:	00f60833          	add	a6,a2,a5
    80001b8e:	02039793          	slli	a5,t2,0x20
    80001b92:	00271903          	lh	s2,2(a4)
    80001b96:	00081803          	lh	a6,0(a6)
    80001b9a:	009605b3          	add	a1,a2,s1
    80001b9e:	01f7d413          	srli	s0,a5,0x1f
    80001ba2:	00471483          	lh	s1,4(a4)
    80001ba6:	008607b3          	add	a5,a2,s0
    80001baa:	00059583          	lh	a1,0(a1)
    80001bae:	026888bb          	mulw	a7,a7,t1
    80001bb2:	00671403          	lh	s0,6(a4)
    80001bb6:	00079303          	lh	t1,0(a5)
    80001bba:	0013879b          	addiw	a5,t2,1
    80001bbe:	0721                	addi	a4,a4,8
    80001bc0:	032803bb          	mulw	t2,a6,s2
    80001bc4:	005882bb          	addw	t0,a7,t0
    80001bc8:	0295893b          	mulw	s2,a1,s1
    80001bcc:	0053883b          	addw	a6,t2,t0
    80001bd0:	028304bb          	mulw	s1,t1,s0
    80001bd4:	010905bb          	addw	a1,s2,a6
    80001bd8:	00b482bb          	addw	t0,s1,a1
    80001bdc:	f6fe1fe3          	bne	t3,a5,80001b5a <matrix_mul_vect+0xa8>
    80001be0:	005f2023          	sw	t0,0(t5)
    80001be4:	0f11                	addi	t5,t5,4
    80001be6:	01d50ebb          	addw	t4,a0,t4
    80001bea:	01c50e3b          	addw	t3,a0,t3
    80001bee:	efef95e3          	bne	t6,t5,80001ad8 <matrix_mul_vect+0x26>
    80001bf2:	6462                	ld	s0,24(sp)
    80001bf4:	64c2                	ld	s1,16(sp)
    80001bf6:	6922                	ld	s2,8(sp)
    80001bf8:	6105                	addi	sp,sp,32
    80001bfa:	8082                	ret
    80001bfc:	8082                	ret

0000000080001bfe <matrix_mul_matrix>:
    80001bfe:	1c050163          	beqz	a0,80001dc0 <matrix_mul_matrix+0x1c2>
    80001c02:	7179                	addi	sp,sp,-48
    80001c04:	f422                	sd	s0,40(sp)
    80001c06:	f026                	sd	s1,32(sp)
    80001c08:	ec4a                	sd	s2,24(sp)
    80001c0a:	e84e                	sd	s3,16(sp)
    80001c0c:	e452                	sd	s4,8(sp)
    80001c0e:	e056                	sd	s5,0(sp)
    80001c10:	882a                	mv	a6,a0
    80001c12:	82ae                	mv	t0,a1
    80001c14:	8332                	mv	t1,a2
    80001c16:	88b6                	mv	a7,a3
    80001c18:	8f2a                	mv	t5,a0
    80001c1a:	4f81                	li	t6,0
    80001c1c:	4381                	li	t2,0
    80001c1e:	4e81                	li	t4,0
    80001c20:	01fe8e3b          	addw	t3,t4,t6
    80001c24:	020e1793          	slli	a5,t3,0x20
    80001c28:	41ff06b3          	sub	a3,t5,t6
    80001c2c:	01e7d413          	srli	s0,a5,0x1e
    80001c30:	0036f493          	andi	s1,a3,3
    80001c34:	00828e33          	add	t3,t0,s0
    80001c38:	8776                	mv	a4,t4
    80001c3a:	87fe                	mv	a5,t6
    80001c3c:	4401                	li	s0,0
    80001c3e:	c8d9                	beqz	s1,80001cd4 <matrix_mul_matrix+0xd6>
    80001c40:	4605                	li	a2,1
    80001c42:	06c48163          	beq	s1,a2,80001ca4 <matrix_mul_matrix+0xa6>
    80001c46:	4509                	li	a0,2
    80001c48:	02a48863          	beq	s1,a0,80001c78 <matrix_mul_matrix+0x7a>
    80001c4c:	020f9593          	slli	a1,t6,0x20
    80001c50:	020e9913          	slli	s2,t4,0x20
    80001c54:	01f5d713          	srli	a4,a1,0x1f
    80001c58:	01f95993          	srli	s3,s2,0x1f
    80001c5c:	00e30a33          	add	s4,t1,a4
    80001c60:	01388ab3          	add	s5,a7,s3
    80001c64:	000a1403          	lh	s0,0(s4)
    80001c68:	000a9683          	lh	a3,0(s5)
    80001c6c:	001f879b          	addiw	a5,t6,1
    80001c70:	01d8073b          	addw	a4,a6,t4
    80001c74:	02d4043b          	mulw	s0,s0,a3
    80001c78:	02079493          	slli	s1,a5,0x20
    80001c7c:	02071613          	slli	a2,a4,0x20
    80001c80:	01f4d513          	srli	a0,s1,0x1f
    80001c84:	01f65593          	srli	a1,a2,0x1f
    80001c88:	00a30933          	add	s2,t1,a0
    80001c8c:	00b889b3          	add	s3,a7,a1
    80001c90:	00091a03          	lh	s4,0(s2)
    80001c94:	00099a83          	lh	s5,0(s3)
    80001c98:	2785                	addiw	a5,a5,1
    80001c9a:	00e8073b          	addw	a4,a6,a4
    80001c9e:	035a06bb          	mulw	a3,s4,s5
    80001ca2:	9c35                	addw	s0,s0,a3
    80001ca4:	02079493          	slli	s1,a5,0x20
    80001ca8:	02071613          	slli	a2,a4,0x20
    80001cac:	01f4d513          	srli	a0,s1,0x1f
    80001cb0:	01f65593          	srli	a1,a2,0x1f
    80001cb4:	00a30933          	add	s2,t1,a0
    80001cb8:	00b889b3          	add	s3,a7,a1
    80001cbc:	00091a03          	lh	s4,0(s2)
    80001cc0:	00099a83          	lh	s5,0(s3)
    80001cc4:	2785                	addiw	a5,a5,1
    80001cc6:	00e8073b          	addw	a4,a6,a4
    80001cca:	035a06bb          	mulw	a3,s4,s5
    80001cce:	9c35                	addw	s0,s0,a3
    80001cd0:	0aff0e63          	beq	t5,a5,80001d8c <matrix_mul_matrix+0x18e>
    80001cd4:	0017849b          	addiw	s1,a5,1
    80001cd8:	00e805bb          	addw	a1,a6,a4
    80001cdc:	00148a1b          	addiw	s4,s1,1
    80001ce0:	02079513          	slli	a0,a5,0x20
    80001ce4:	02071613          	slli	a2,a4,0x20
    80001ce8:	01f55913          	srli	s2,a0,0x1f
    80001cec:	01f65993          	srli	s3,a2,0x1f
    80001cf0:	00b80abb          	addw	s5,a6,a1
    80001cf4:	02049693          	slli	a3,s1,0x20
    80001cf8:	020a1613          	slli	a2,s4,0x20
    80001cfc:	02059493          	slli	s1,a1,0x20
    80001d00:	01388733          	add	a4,a7,s3
    80001d04:	012307b3          	add	a5,t1,s2
    80001d08:	001a099b          	addiw	s3,s4,1
    80001d0c:	0158093b          	addw	s2,a6,s5
    80001d10:	01f6d513          	srli	a0,a3,0x1f
    80001d14:	01f4d593          	srli	a1,s1,0x1f
    80001d18:	01f65a13          	srli	s4,a2,0x1f
    80001d1c:	1a82                	slli	s5,s5,0x20
    80001d1e:	00071483          	lh	s1,0(a4)
    80001d22:	00079783          	lh	a5,0(a5)
    80001d26:	01fad713          	srli	a4,s5,0x1f
    80001d2a:	01430633          	add	a2,t1,s4
    80001d2e:	02091a93          	slli	s5,s2,0x20
    80001d32:	02099a13          	slli	s4,s3,0x20
    80001d36:	951a                	add	a0,a0,t1
    80001d38:	95c6                	add	a1,a1,a7
    80001d3a:	00e886b3          	add	a3,a7,a4
    80001d3e:	00051503          	lh	a0,0(a0)
    80001d42:	00059583          	lh	a1,0(a1)
    80001d46:	01fad713          	srli	a4,s5,0x1f
    80001d4a:	01fa5a13          	srli	s4,s4,0x1f
    80001d4e:	00061603          	lh	a2,0(a2)
    80001d52:	00069a83          	lh	s5,0(a3)
    80001d56:	9a1a                	add	s4,s4,t1
    80001d58:	9746                	add	a4,a4,a7
    80001d5a:	029786bb          	mulw	a3,a5,s1
    80001d5e:	000a1483          	lh	s1,0(s4)
    80001d62:	00071a03          	lh	s4,0(a4)
    80001d66:	0019879b          	addiw	a5,s3,1
    80001d6a:	0128073b          	addw	a4,a6,s2
    80001d6e:	02b509bb          	mulw	s3,a0,a1
    80001d72:	9c35                	addw	s0,s0,a3
    80001d74:	0356093b          	mulw	s2,a2,s5
    80001d78:	0089853b          	addw	a0,s3,s0
    80001d7c:	034485bb          	mulw	a1,s1,s4
    80001d80:	00a9063b          	addw	a2,s2,a0
    80001d84:	00c5843b          	addw	s0,a1,a2
    80001d88:	f4ff16e3          	bne	t5,a5,80001cd4 <matrix_mul_matrix+0xd6>
    80001d8c:	008e2023          	sw	s0,0(t3)
    80001d90:	001e8e1b          	addiw	t3,t4,1
    80001d94:	01c80463          	beq	a6,t3,80001d9c <matrix_mul_matrix+0x19e>
    80001d98:	8ef2                	mv	t4,t3
    80001d9a:	b559                	j	80001c20 <matrix_mul_matrix+0x22>
    80001d9c:	0013879b          	addiw	a5,t2,1
    80001da0:	01f80fbb          	addw	t6,a6,t6
    80001da4:	01e80f3b          	addw	t5,a6,t5
    80001da8:	01d38463          	beq	t2,t4,80001db0 <matrix_mul_matrix+0x1b2>
    80001dac:	83be                	mv	t2,a5
    80001dae:	bd85                	j	80001c1e <matrix_mul_matrix+0x20>
    80001db0:	7422                	ld	s0,40(sp)
    80001db2:	7482                	ld	s1,32(sp)
    80001db4:	6962                	ld	s2,24(sp)
    80001db6:	69c2                	ld	s3,16(sp)
    80001db8:	6a22                	ld	s4,8(sp)
    80001dba:	6a82                	ld	s5,0(sp)
    80001dbc:	6145                	addi	sp,sp,48
    80001dbe:	8082                	ret
    80001dc0:	8082                	ret

0000000080001dc2 <matrix_mul_matrix_bitextract>:
    80001dc2:	12050663          	beqz	a0,80001eee <matrix_mul_matrix_bitextract+0x12c>
    80001dc6:	1141                	addi	sp,sp,-16
    80001dc8:	e422                	sd	s0,8(sp)
    80001dca:	e026                	sd	s1,0(sp)
    80001dcc:	882a                	mv	a6,a0
    80001dce:	82ae                	mv	t0,a1
    80001dd0:	8e32                	mv	t3,a2
    80001dd2:	8336                	mv	t1,a3
    80001dd4:	8eaa                	mv	t4,a0
    80001dd6:	4f81                	li	t6,0
    80001dd8:	4381                	li	t2,0
    80001dda:	4f01                	li	t5,0
    80001ddc:	01ff08bb          	addw	a7,t5,t6
    80001de0:	02089713          	slli	a4,a7,0x20
    80001de4:	41df87b3          	sub	a5,t6,t4
    80001de8:	01e75413          	srli	s0,a4,0x1e
    80001dec:	0017f493          	andi	s1,a5,1
    80001df0:	008288b3          	add	a7,t0,s0
    80001df4:	85fa                	mv	a1,t5
    80001df6:	867e                	mv	a2,t6
    80001df8:	4401                	li	s0,0
    80001dfa:	c0b9                	beqz	s1,80001e40 <matrix_mul_matrix_bitextract+0x7e>
    80001dfc:	020f9513          	slli	a0,t6,0x20
    80001e00:	020f1693          	slli	a3,t5,0x20
    80001e04:	01f55593          	srli	a1,a0,0x1f
    80001e08:	01f6d613          	srli	a2,a3,0x1f
    80001e0c:	00be07b3          	add	a5,t3,a1
    80001e10:	00c30733          	add	a4,t1,a2
    80001e14:	00079403          	lh	s0,0(a5)
    80001e18:	00071483          	lh	s1,0(a4)
    80001e1c:	001f861b          	addiw	a2,t6,1
    80001e20:	01e805bb          	addw	a1,a6,t5
    80001e24:	0294053b          	mulw	a0,s0,s1
    80001e28:	4025569b          	sraiw	a3,a0,0x2
    80001e2c:	4055579b          	sraiw	a5,a0,0x5
    80001e30:	00f6f713          	andi	a4,a3,15
    80001e34:	07f7f413          	andi	s0,a5,127
    80001e38:	02870433          	mul	s0,a4,s0
    80001e3c:	08ce8363          	beq	t4,a2,80001ec2 <matrix_mul_matrix_bitextract+0x100>
    80001e40:	02061493          	slli	s1,a2,0x20
    80001e44:	01f4d693          	srli	a3,s1,0x1f
    80001e48:	02059513          	slli	a0,a1,0x20
    80001e4c:	2605                	addiw	a2,a2,1
    80001e4e:	00b805bb          	addw	a1,a6,a1
    80001e52:	02061493          	slli	s1,a2,0x20
    80001e56:	01f55793          	srli	a5,a0,0x1f
    80001e5a:	00de0733          	add	a4,t3,a3
    80001e5e:	02059693          	slli	a3,a1,0x20
    80001e62:	00f30533          	add	a0,t1,a5
    80001e66:	01f4d793          	srli	a5,s1,0x1f
    80001e6a:	01f6d493          	srli	s1,a3,0x1f
    80001e6e:	009306b3          	add	a3,t1,s1
    80001e72:	00051503          	lh	a0,0(a0)
    80001e76:	97f2                	add	a5,a5,t3
    80001e78:	00071703          	lh	a4,0(a4)
    80001e7c:	00079483          	lh	s1,0(a5)
    80001e80:	00069783          	lh	a5,0(a3)
    80001e84:	02a7073b          	mulw	a4,a4,a0
    80001e88:	2605                	addiw	a2,a2,1
    80001e8a:	00b805bb          	addw	a1,a6,a1
    80001e8e:	02f484bb          	mulw	s1,s1,a5
    80001e92:	4027551b          	sraiw	a0,a4,0x2
    80001e96:	4057579b          	sraiw	a5,a4,0x5
    80001e9a:	00f57693          	andi	a3,a0,15
    80001e9e:	07f7f713          	andi	a4,a5,127
    80001ea2:	4024d51b          	sraiw	a0,s1,0x2
    80001ea6:	4054d49b          	sraiw	s1,s1,0x5
    80001eaa:	02e6873b          	mulw	a4,a3,a4
    80001eae:	07f4f793          	andi	a5,s1,127
    80001eb2:	00f57693          	andi	a3,a0,15
    80001eb6:	02f6853b          	mulw	a0,a3,a5
    80001eba:	9c39                	addw	s0,s0,a4
    80001ebc:	9c29                	addw	s0,s0,a0
    80001ebe:	f8ce91e3          	bne	t4,a2,80001e40 <matrix_mul_matrix_bitextract+0x7e>
    80001ec2:	0088a023          	sw	s0,0(a7)
    80001ec6:	001f089b          	addiw	a7,t5,1
    80001eca:	01180463          	beq	a6,a7,80001ed2 <matrix_mul_matrix_bitextract+0x110>
    80001ece:	8f46                	mv	t5,a7
    80001ed0:	b731                	j	80001ddc <matrix_mul_matrix_bitextract+0x1a>
    80001ed2:	0013861b          	addiw	a2,t2,1
    80001ed6:	01f80fbb          	addw	t6,a6,t6
    80001eda:	01d80ebb          	addw	t4,a6,t4
    80001ede:	01e38463          	beq	t2,t5,80001ee6 <matrix_mul_matrix_bitextract+0x124>
    80001ee2:	83b2                	mv	t2,a2
    80001ee4:	bddd                	j	80001dda <matrix_mul_matrix_bitextract+0x18>
    80001ee6:	6422                	ld	s0,8(sp)
    80001ee8:	6482                	ld	s1,0(sp)
    80001eea:	0141                	addi	sp,sp,16
    80001eec:	8082                	ret
    80001eee:	8082                	ret

0000000080001ef0 <iterate>:
    80001ef0:	1101                	addi	sp,sp,-32
    80001ef2:	e04a                	sd	s2,0(sp)
    80001ef4:	02c52903          	lw	s2,44(a0)
    80001ef8:	ec06                	sd	ra,24(sp)
    80001efa:	e822                	sd	s0,16(sp)
    80001efc:	e426                	sd	s1,8(sp)
    80001efe:	06053023          	sd	zero,96(a0)
    80001f02:	02090c63          	beqz	s2,80001f3a <iterate+0x4a>
    80001f06:	842a                	mv	s0,a0
    80001f08:	4481                	li	s1,0
    80001f0a:	4585                	li	a1,1
    80001f0c:	8522                	mv	a0,s0
    80001f0e:	344000ef          	jal	ra,80002252 <core_bench_list>
    80001f12:	06045583          	lhu	a1,96(s0)
    80001f16:	a76fe0ef          	jal	ra,8000018c <crcu16>
    80001f1a:	06a41023          	sh	a0,96(s0)
    80001f1e:	55fd                	li	a1,-1
    80001f20:	8522                	mv	a0,s0
    80001f22:	330000ef          	jal	ra,80002252 <core_bench_list>
    80001f26:	06045583          	lhu	a1,96(s0)
    80001f2a:	a62fe0ef          	jal	ra,8000018c <crcu16>
    80001f2e:	06a41023          	sh	a0,96(s0)
    80001f32:	c899                	beqz	s1,80001f48 <iterate+0x58>
    80001f34:	2485                	addiw	s1,s1,1
    80001f36:	fc991ae3          	bne	s2,s1,80001f0a <iterate+0x1a>
    80001f3a:	60e2                	ld	ra,24(sp)
    80001f3c:	6442                	ld	s0,16(sp)
    80001f3e:	64a2                	ld	s1,8(sp)
    80001f40:	6902                	ld	s2,0(sp)
    80001f42:	4501                	li	a0,0
    80001f44:	6105                	addi	sp,sp,32
    80001f46:	8082                	ret
    80001f48:	06a41123          	sh	a0,98(s0)
    80001f4c:	4785                	li	a5,1
    80001f4e:	fef906e3          	beq	s2,a5,80001f3a <iterate+0x4a>
    80001f52:	4485                	li	s1,1
    80001f54:	bf5d                	j	80001f0a <iterate+0x1a>

0000000080001f56 <calc_func>:
    80001f56:	7179                	addi	sp,sp,-48
    80001f58:	f022                	sd	s0,32(sp)
    80001f5a:	00051403          	lh	s0,0(a0)
    80001f5e:	f406                	sd	ra,40(sp)
    80001f60:	ec26                	sd	s1,24(sp)
    80001f62:	4074579b          	sraiw	a5,s0,0x7
    80001f66:	e84a                	sd	s2,16(sp)
    80001f68:	e44e                	sd	s3,8(sp)
    80001f6a:	0017f093          	andi	ra,a5,1
    80001f6e:	00008b63          	beqz	ra,80001f84 <calc_func+0x2e>
    80001f72:	70a2                	ld	ra,40(sp)
    80001f74:	07f47513          	andi	a0,s0,127
    80001f78:	7402                	ld	s0,32(sp)
    80001f7a:	64e2                	ld	s1,24(sp)
    80001f7c:	6942                	ld	s2,16(sp)
    80001f7e:	69a2                	ld	s3,8(sp)
    80001f80:	6145                	addi	sp,sp,48
    80001f82:	8082                	ret
    80001f84:	4034571b          	sraiw	a4,s0,0x3
    80001f88:	00f77293          	andi	t0,a4,15
    80001f8c:	84ae                	mv	s1,a1
    80001f8e:	00747693          	andi	a3,s0,7
    80001f92:	00429593          	slli	a1,t0,0x4
    80001f96:	0604d783          	lhu	a5,96(s1)
    80001f9a:	89aa                	mv	s3,a0
    80001f9c:	0055e5b3          	or	a1,a1,t0
    80001fa0:	c2a1                	beqz	a3,80001fe0 <calc_func+0x8a>
    80001fa2:	4505                	li	a0,1
    80001fa4:	06a68b63          	beq	a3,a0,8000201a <calc_func+0xc4>
    80001fa8:	03041e13          	slli	t3,s0,0x30
    80001fac:	030e5513          	srli	a0,t3,0x30
    80001fb0:	8922                	mv	s2,s0
    80001fb2:	85be                	mv	a1,a5
    80001fb4:	9d8fe0ef          	jal	ra,8000018c <crcu16>
    80001fb8:	8eaa                	mv	t4,a0
    80001fba:	f0047f13          	andi	t5,s0,-256
    80001fbe:	07f97513          	andi	a0,s2,127
    80001fc2:	01e56fb3          	or	t6,a0,t5
    80001fc6:	07d49023          	sh	t4,96(s1)
    80001fca:	080fe413          	ori	s0,t6,128
    80001fce:	00899023          	sh	s0,0(s3)
    80001fd2:	70a2                	ld	ra,40(sp)
    80001fd4:	7402                	ld	s0,32(sp)
    80001fd6:	64e2                	ld	s1,24(sp)
    80001fd8:	6942                	ld	s2,16(sp)
    80001fda:	69a2                	ld	s3,8(sp)
    80001fdc:	6145                	addi	sp,sp,48
    80001fde:	8082                	ret
    80001fe0:	02200313          	li	t1,34
    80001fe4:	83ae                	mv	t2,a1
    80001fe6:	0065d463          	bge	a1,t1,80001fee <calc_func+0x98>
    80001fea:	02200393          	li	t2,34
    80001fee:	00049603          	lh	a2,0(s1)
    80001ff2:	00249683          	lh	a3,2(s1)
    80001ff6:	708c                	ld	a1,32(s1)
    80001ff8:	5488                	lw	a0,40(s1)
    80001ffa:	0ff3f713          	zext.b	a4,t2
    80001ffe:	3f2010ef          	jal	ra,800033f0 <core_bench_state>
    80002002:	0664d603          	lhu	a2,102(s1)
    80002006:	0105191b          	slliw	s2,a0,0x10
    8000200a:	4109591b          	sraiw	s2,s2,0x10
    8000200e:	ea05                	bnez	a2,8000203e <calc_func+0xe8>
    80002010:	0604d783          	lhu	a5,96(s1)
    80002014:	06a49323          	sh	a0,102(s1)
    80002018:	bf69                	j	80001fb2 <calc_func+0x5c>
    8000201a:	863e                	mv	a2,a5
    8000201c:	04048513          	addi	a0,s1,64
    80002020:	c1aff0ef          	jal	ra,8000143a <core_bench_matrix>
    80002024:	0644d803          	lhu	a6,100(s1)
    80002028:	0105189b          	slliw	a7,a0,0x10
    8000202c:	4108d91b          	sraiw	s2,a7,0x10
    80002030:	00081763          	bnez	a6,8000203e <calc_func+0xe8>
    80002034:	0604d783          	lhu	a5,96(s1)
    80002038:	06a49223          	sh	a0,100(s1)
    8000203c:	bf9d                	j	80001fb2 <calc_func+0x5c>
    8000203e:	0604d783          	lhu	a5,96(s1)
    80002042:	bf85                	j	80001fb2 <calc_func+0x5c>

0000000080002044 <cmp_complex>:
    80002044:	7179                	addi	sp,sp,-48
    80002046:	ec26                	sd	s1,24(sp)
    80002048:	00051483          	lh	s1,0(a0)
    8000204c:	f406                	sd	ra,40(sp)
    8000204e:	f022                	sd	s0,32(sp)
    80002050:	4074d79b          	sraiw	a5,s1,0x7
    80002054:	e84a                	sd	s2,16(sp)
    80002056:	e052                	sd	s4,0(sp)
    80002058:	e44e                	sd	s3,8(sp)
    8000205a:	0017f093          	andi	ra,a5,1
    8000205e:	892e                	mv	s2,a1
    80002060:	8432                	mv	s0,a2
    80002062:	07f4fa13          	andi	s4,s1,127
    80002066:	04009763          	bnez	ra,800020b4 <cmp_complex+0x70>
    8000206a:	4034d59b          	sraiw	a1,s1,0x3
    8000206e:	00f5f293          	andi	t0,a1,15
    80002072:	00429693          	slli	a3,t0,0x4
    80002076:	0074f713          	andi	a4,s1,7
    8000207a:	06065783          	lhu	a5,96(a2)
    8000207e:	89aa                	mv	s3,a0
    80002080:	00d2e5b3          	or	a1,t0,a3
    80002084:	c371                	beqz	a4,80002148 <cmp_complex+0x104>
    80002086:	4505                	li	a0,1
    80002088:	12a70b63          	beq	a4,a0,800021be <cmp_complex+0x17a>
    8000208c:	03049e13          	slli	t3,s1,0x30
    80002090:	030e5513          	srli	a0,t3,0x30
    80002094:	8a26                	mv	s4,s1
    80002096:	85be                	mv	a1,a5
    80002098:	8f4fe0ef          	jal	ra,8000018c <crcu16>
    8000209c:	07fa7a13          	andi	s4,s4,127
    800020a0:	f004fe93          	andi	t4,s1,-256
    800020a4:	01da6f33          	or	t5,s4,t4
    800020a8:	06a41023          	sh	a0,96(s0)
    800020ac:	080f6f93          	ori	t6,t5,128
    800020b0:	01f99023          	sh	t6,0(s3)
    800020b4:	00091483          	lh	s1,0(s2)
    800020b8:	4074d79b          	sraiw	a5,s1,0x7
    800020bc:	0017f093          	andi	ra,a5,1
    800020c0:	07f4fe93          	andi	t4,s1,127
    800020c4:	06009263          	bnez	ra,80002128 <cmp_complex+0xe4>
    800020c8:	4034d99b          	sraiw	s3,s1,0x3
    800020cc:	00f9f593          	andi	a1,s3,15
    800020d0:	00459293          	slli	t0,a1,0x4
    800020d4:	0074f713          	andi	a4,s1,7
    800020d8:	06045783          	lhu	a5,96(s0)
    800020dc:	0055e5b3          	or	a1,a1,t0
    800020e0:	c34d                	beqz	a4,80002182 <cmp_complex+0x13e>
    800020e2:	4505                	li	a0,1
    800020e4:	04a71c63          	bne	a4,a0,8000213c <cmp_complex+0xf8>
    800020e8:	863e                	mv	a2,a5
    800020ea:	04040513          	addi	a0,s0,64
    800020ee:	b4cff0ef          	jal	ra,8000143a <core_bench_matrix>
    800020f2:	06445803          	lhu	a6,100(s0)
    800020f6:	0105189b          	slliw	a7,a0,0x10
    800020fa:	4108d99b          	sraiw	s3,a7,0x10
    800020fe:	0e081263          	bnez	a6,800021e2 <cmp_complex+0x19e>
    80002102:	06045783          	lhu	a5,96(s0)
    80002106:	06a41223          	sh	a0,100(s0)
    8000210a:	85be                	mv	a1,a5
    8000210c:	880fe0ef          	jal	ra,8000018c <crcu16>
    80002110:	07f9fe93          	andi	t4,s3,127
    80002114:	f004ff13          	andi	t5,s1,-256
    80002118:	01eeefb3          	or	t6,t4,t5
    8000211c:	06a41023          	sh	a0,96(s0)
    80002120:	080fe413          	ori	s0,t6,128
    80002124:	00891023          	sh	s0,0(s2)
    80002128:	70a2                	ld	ra,40(sp)
    8000212a:	7402                	ld	s0,32(sp)
    8000212c:	64e2                	ld	s1,24(sp)
    8000212e:	6942                	ld	s2,16(sp)
    80002130:	69a2                	ld	s3,8(sp)
    80002132:	41da053b          	subw	a0,s4,t4
    80002136:	6a02                	ld	s4,0(sp)
    80002138:	6145                	addi	sp,sp,48
    8000213a:	8082                	ret
    8000213c:	03049e13          	slli	t3,s1,0x30
    80002140:	030e5513          	srli	a0,t3,0x30
    80002144:	89a6                	mv	s3,s1
    80002146:	b7d1                	j	8000210a <cmp_complex+0xc6>
    80002148:	02200313          	li	t1,34
    8000214c:	83ae                	mv	t2,a1
    8000214e:	0065d463          	bge	a1,t1,80002156 <cmp_complex+0x112>
    80002152:	02200393          	li	t2,34
    80002156:	00041603          	lh	a2,0(s0)
    8000215a:	00241683          	lh	a3,2(s0)
    8000215e:	700c                	ld	a1,32(s0)
    80002160:	5408                	lw	a0,40(s0)
    80002162:	0ff3f713          	zext.b	a4,t2
    80002166:	28a010ef          	jal	ra,800033f0 <core_bench_state>
    8000216a:	06645603          	lhu	a2,102(s0)
    8000216e:	01051a1b          	slliw	s4,a0,0x10
    80002172:	410a5a1b          	sraiw	s4,s4,0x10
    80002176:	ea2d                	bnez	a2,800021e8 <cmp_complex+0x1a4>
    80002178:	06045783          	lhu	a5,96(s0)
    8000217c:	06a41323          	sh	a0,102(s0)
    80002180:	bf19                	j	80002096 <cmp_complex+0x52>
    80002182:	02200693          	li	a3,34
    80002186:	832e                	mv	t1,a1
    80002188:	00d5d463          	bge	a1,a3,80002190 <cmp_complex+0x14c>
    8000218c:	02200313          	li	t1,34
    80002190:	00041603          	lh	a2,0(s0)
    80002194:	00241683          	lh	a3,2(s0)
    80002198:	700c                	ld	a1,32(s0)
    8000219a:	5408                	lw	a0,40(s0)
    8000219c:	0ff37713          	zext.b	a4,t1
    800021a0:	250010ef          	jal	ra,800033f0 <core_bench_state>
    800021a4:	06645383          	lhu	t2,102(s0)
    800021a8:	0105161b          	slliw	a2,a0,0x10
    800021ac:	4106599b          	sraiw	s3,a2,0x10
    800021b0:	02039963          	bnez	t2,800021e2 <cmp_complex+0x19e>
    800021b4:	06045783          	lhu	a5,96(s0)
    800021b8:	06a41323          	sh	a0,102(s0)
    800021bc:	b7b9                	j	8000210a <cmp_complex+0xc6>
    800021be:	863e                	mv	a2,a5
    800021c0:	04040513          	addi	a0,s0,64
    800021c4:	a76ff0ef          	jal	ra,8000143a <core_bench_matrix>
    800021c8:	06445803          	lhu	a6,100(s0)
    800021cc:	0105189b          	slliw	a7,a0,0x10
    800021d0:	4108da1b          	sraiw	s4,a7,0x10
    800021d4:	00081a63          	bnez	a6,800021e8 <cmp_complex+0x1a4>
    800021d8:	06045783          	lhu	a5,96(s0)
    800021dc:	06a41223          	sh	a0,100(s0)
    800021e0:	bd5d                	j	80002096 <cmp_complex+0x52>
    800021e2:	06045783          	lhu	a5,96(s0)
    800021e6:	b715                	j	8000210a <cmp_complex+0xc6>
    800021e8:	06045783          	lhu	a5,96(s0)
    800021ec:	b56d                	j	80002096 <cmp_complex+0x52>

00000000800021ee <cmp_idx>:
    800021ee:	c619                	beqz	a2,800021fc <cmp_idx+0xe>
    800021f0:	00251503          	lh	a0,2(a0)
    800021f4:	00259583          	lh	a1,2(a1)
    800021f8:	9d0d                	subw	a0,a0,a1
    800021fa:	8082                	ret
    800021fc:	00051783          	lh	a5,0(a0)
    80002200:	0107971b          	slliw	a4,a5,0x10
    80002204:	0107529b          	srliw	t0,a4,0x10
    80002208:	f007f313          	andi	t1,a5,-256
    8000220c:	0082d39b          	srliw	t2,t0,0x8
    80002210:	00736633          	or	a2,t1,t2
    80002214:	00c51023          	sh	a2,0(a0)
    80002218:	00059683          	lh	a3,0(a1)
    8000221c:	00251503          	lh	a0,2(a0)
    80002220:	0106981b          	slliw	a6,a3,0x10
    80002224:	0108589b          	srliw	a7,a6,0x10
    80002228:	f006fe13          	andi	t3,a3,-256
    8000222c:	0088de9b          	srliw	t4,a7,0x8
    80002230:	01de6f33          	or	t5,t3,t4
    80002234:	01e59023          	sh	t5,0(a1)
    80002238:	00259583          	lh	a1,2(a1)
    8000223c:	9d0d                	subw	a0,a0,a1
    8000223e:	8082                	ret

0000000080002240 <copy_info>:
    80002240:	00059703          	lh	a4,0(a1)
    80002244:	00259783          	lh	a5,2(a1)
    80002248:	00e51023          	sh	a4,0(a0)
    8000224c:	00f51123          	sh	a5,2(a0)
    80002250:	8082                	ret

0000000080002252 <core_bench_list>:
    80002252:	00451e03          	lh	t3,4(a0)
    80002256:	7159                	addi	sp,sp,-112
    80002258:	f0a2                	sd	s0,96(sp)
    8000225a:	f062                	sd	s8,32(sp)
    8000225c:	e46e                	sd	s11,8(sp)
    8000225e:	f486                	sd	ra,104(sp)
    80002260:	eca6                	sd	s1,88(sp)
    80002262:	e8ca                	sd	s2,80(sp)
    80002264:	e4ce                	sd	s3,72(sp)
    80002266:	e0d2                	sd	s4,64(sp)
    80002268:	fc56                	sd	s5,56(sp)
    8000226a:	f85a                	sd	s6,48(sp)
    8000226c:	f45e                	sd	s7,40(sp)
    8000226e:	ec66                	sd	s9,24(sp)
    80002270:	e86a                	sd	s10,16(sp)
    80002272:	7d00                	ld	s0,56(a0)
    80002274:	8daa                	mv	s11,a0
    80002276:	882e                	mv	a6,a1
    80002278:	8c2e                	mv	s8,a1
    8000227a:	43c05663          	blez	t3,800026a6 <core_bench_list+0x454>
    8000227e:	4581                	li	a1,0
    80002280:	4301                	li	t1,0
    80002282:	4a81                	li	s5,0
    80002284:	4f81                	li	t6,0
    80002286:	0ff5fc93          	zext.b	s9,a1
    8000228a:	000c061b          	sext.w	a2,s8
    8000228e:	280c4963          	bltz	s8,80002520 <core_bench_list+0x2ce>
    80002292:	40040d63          	beqz	s0,800026ac <core_bench_list+0x45a>
    80002296:	87a2                	mv	a5,s0
    80002298:	a019                	j	8000229e <core_bench_list+0x4c>
    8000229a:	639c                	ld	a5,0(a5)
    8000229c:	c799                	beqz	a5,800022aa <core_bench_list+0x58>
    8000229e:	0087b283          	ld	t0,8(a5)
    800022a2:	00229383          	lh	t2,2(t0)
    800022a6:	fec39ae3          	bne	t2,a2,8000229a <core_bench_list+0x48>
    800022aa:	4481                	li	s1,0
    800022ac:	a019                	j	800022b2 <core_bench_list+0x60>
    800022ae:	84a2                	mv	s1,s0
    800022b0:	844a                	mv	s0,s2
    800022b2:	00043903          	ld	s2,0(s0)
    800022b6:	e004                	sd	s1,0(s0)
    800022b8:	fe091be3          	bnez	s2,800022ae <core_bench_list+0x5c>
    800022bc:	28078163          	beqz	a5,8000253e <core_bench_list+0x2ec>
    800022c0:	0087b983          	ld	s3,8(a5)
    800022c4:	001a851b          	addiw	a0,s5,1
    800022c8:	03051a13          	slli	s4,a0,0x30
    800022cc:	00099b03          	lh	s6,0(s3)
    800022d0:	030a5a93          	srli	s5,s4,0x30
    800022d4:	001b7b93          	andi	s7,s6,1
    800022d8:	000b8c63          	beqz	s7,800022f0 <core_bench_list+0x9e>
    800022dc:	409b5d1b          	sraiw	s10,s6,0x9
    800022e0:	001d7e93          	andi	t4,s10,1
    800022e4:	01fe88bb          	addw	a7,t4,t6
    800022e8:	03089f13          	slli	t5,a7,0x30
    800022ec:	030f5f93          	srli	t6,t5,0x30
    800022f0:	6398                	ld	a4,0(a5)
    800022f2:	cb01                	beqz	a4,80002302 <core_bench_list+0xb0>
    800022f4:	00073083          	ld	ra,0(a4)
    800022f8:	0017b023          	sd	ra,0(a5)
    800022fc:	6014                	ld	a3,0(s0)
    800022fe:	e314                	sd	a3,0(a4)
    80002300:	e018                	sd	a4,0(s0)
    80002302:	00064763          	bltz	a2,80002310 <core_bench_list+0xbe>
    80002306:	2c05                	addiw	s8,s8,1
    80002308:	010c161b          	slliw	a2,s8,0x10
    8000230c:	41065c1b          	sraiw	s8,a2,0x10
    80002310:	2585                	addiw	a1,a1,1
    80002312:	0105951b          	slliw	a0,a1,0x10
    80002316:	4105559b          	sraiw	a1,a0,0x10
    8000231a:	f6be16e3          	bne	t3,a1,80002286 <core_bench_list+0x34>
    8000231e:	002a9e1b          	slliw	t3,s5,0x2
    80002322:	406e0a3b          	subw	s4,t3,t1
    80002326:	01fa0abb          	addw	s5,s4,t6
    8000232a:	030a9b13          	slli	s6,s5,0x30
    8000232e:	030b5493          	srli	s1,s6,0x30
    80002332:	27004763          	bgtz	a6,800025a0 <core_bench_list+0x34e>
    80002336:	00043d83          	ld	s11,0(s0)
    8000233a:	000c069b          	sext.w	a3,s8
    8000233e:	8922                	mv	s2,s0
    80002340:	000dba03          	ld	s4,0(s11)
    80002344:	008db603          	ld	a2,8(s11)
    80002348:	000c851b          	sext.w	a0,s9
    8000234c:	008a3b83          	ld	s7,8(s4)
    80002350:	000a3783          	ld	a5,0(s4)
    80002354:	017db423          	sd	s7,8(s11)
    80002358:	00ca3423          	sd	a2,8(s4)
    8000235c:	00fdb023          	sd	a5,0(s11)
    80002360:	000a3023          	sd	zero,0(s4)
    80002364:	160c4963          	bltz	s8,800024d6 <core_bench_list+0x284>
    80002368:	00893c83          	ld	s9,8(s2)
    8000236c:	002c9303          	lh	t1,2(s9)
    80002370:	00d30a63          	beq	t1,a3,80002384 <core_bench_list+0x132>
    80002374:	00093903          	ld	s2,0(s2)
    80002378:	fe0918e3          	bnez	s2,80002368 <core_bench_list+0x116>
    8000237c:	00043903          	ld	s2,0(s0)
    80002380:	02090263          	beqz	s2,800023a4 <core_bench_list+0x152>
    80002384:	00843c03          	ld	s8,8(s0)
    80002388:	85a6                	mv	a1,s1
    8000238a:	000c1503          	lh	a0,0(s8)
    8000238e:	d0efe0ef          	jal	ra,8000089c <crc16>
    80002392:	00093903          	ld	s2,0(s2)
    80002396:	84aa                	mv	s1,a0
    80002398:	fe0916e3          	bnez	s2,80002384 <core_bench_list+0x132>
    8000239c:	00043903          	ld	s2,0(s0)
    800023a0:	008a3603          	ld	a2,8(s4)
    800023a4:	00893583          	ld	a1,8(s2)
    800023a8:	00093e03          	ld	t3,0(s2)
    800023ac:	4e85                	li	t4,1
    800023ae:	00ba3423          	sd	a1,8(s4)
    800023b2:	00c93423          	sd	a2,8(s2)
    800023b6:	01ca3023          	sd	t3,0(s4)
    800023ba:	01493023          	sd	s4,0(s2)
    800023be:	4601                	li	a2,0
    800023c0:	4901                	li	s2,0
    800023c2:	4b81                	li	s7,0
    800023c4:	4f85                	li	t6,1
    800023c6:	007efa93          	andi	s5,t4,7
    800023ca:	2b85                	addiw	s7,s7,1
    800023cc:	8b22                	mv	s6,s0
    800023ce:	4d81                	li	s11,0
    800023d0:	060a8963          	beqz	s5,80002442 <core_bench_list+0x1f0>
    800023d4:	4805                	li	a6,1
    800023d6:	050a8f63          	beq	s5,a6,80002434 <core_bench_list+0x1e2>
    800023da:	4d09                	li	s10,2
    800023dc:	05aa8763          	beq	s5,s10,8000242a <core_bench_list+0x1d8>
    800023e0:	488d                	li	a7,3
    800023e2:	031a8f63          	beq	s5,a7,80002420 <core_bench_list+0x1ce>
    800023e6:	4711                	li	a4,4
    800023e8:	02ea8763          	beq	s5,a4,80002416 <core_bench_list+0x1c4>
    800023ec:	4095                	li	ra,5
    800023ee:	001a8f63          	beq	s5,ra,8000240c <core_bench_list+0x1ba>
    800023f2:	4999                	li	s3,6
    800023f4:	013a8763          	beq	s5,s3,80002402 <core_bench_list+0x1b0>
    800023f8:	00043b03          	ld	s6,0(s0)
    800023fc:	4d85                	li	s11,1
    800023fe:	040b0c63          	beqz	s6,80002456 <core_bench_list+0x204>
    80002402:	000b3b03          	ld	s6,0(s6)
    80002406:	2d85                	addiw	s11,s11,1
    80002408:	040b0763          	beqz	s6,80002456 <core_bench_list+0x204>
    8000240c:	000b3b03          	ld	s6,0(s6)
    80002410:	2d85                	addiw	s11,s11,1
    80002412:	040b0263          	beqz	s6,80002456 <core_bench_list+0x204>
    80002416:	000b3b03          	ld	s6,0(s6)
    8000241a:	2d85                	addiw	s11,s11,1
    8000241c:	020b0d63          	beqz	s6,80002456 <core_bench_list+0x204>
    80002420:	000b3b03          	ld	s6,0(s6)
    80002424:	2d85                	addiw	s11,s11,1
    80002426:	020b0863          	beqz	s6,80002456 <core_bench_list+0x204>
    8000242a:	000b3b03          	ld	s6,0(s6)
    8000242e:	2d85                	addiw	s11,s11,1
    80002430:	020b0363          	beqz	s6,80002456 <core_bench_list+0x204>
    80002434:	000b3b03          	ld	s6,0(s6)
    80002438:	2d85                	addiw	s11,s11,1
    8000243a:	000b0e63          	beqz	s6,80002456 <core_bench_list+0x204>
    8000243e:	01be8c63          	beq	t4,s11,80002456 <core_bench_list+0x204>
    80002442:	000b3b03          	ld	s6,0(s6)
    80002446:	2d85                	addiw	s11,s11,1
    80002448:	000b0763          	beqz	s6,80002456 <core_bench_list+0x204>
    8000244c:	000b3b03          	ld	s6,0(s6)
    80002450:	2d85                	addiw	s11,s11,1
    80002452:	fa0b18e3          	bnez	s6,80002402 <core_bench_list+0x1b0>
    80002456:	85f6                	mv	a1,t4
    80002458:	060d8463          	beqz	s11,800024c0 <core_bench_list+0x26e>
    8000245c:	cdc1                	beqz	a1,800024f4 <core_bench_list+0x2a2>
    8000245e:	080b0b63          	beqz	s6,800024f4 <core_bench_list+0x2a2>
    80002462:	641c                	ld	a5,8(s0)
    80002464:	008b3c83          	ld	s9,8(s6)
    80002468:	00079683          	lh	a3,0(a5)
    8000246c:	002c9303          	lh	t1,2(s9)
    80002470:	00279283          	lh	t0,2(a5)
    80002474:	0106939b          	slliw	t2,a3,0x10
    80002478:	0103da1b          	srliw	s4,t2,0x10
    8000247c:	f006f513          	andi	a0,a3,-256
    80002480:	008a5c1b          	srliw	s8,s4,0x8
    80002484:	01856e33          	or	t3,a0,s8
    80002488:	01c79023          	sh	t3,0(a5)
    8000248c:	000c9a83          	lh	s5,0(s9)
    80002490:	010a981b          	slliw	a6,s5,0x10
    80002494:	01085d1b          	srliw	s10,a6,0x10
    80002498:	f00af893          	andi	a7,s5,-256
    8000249c:	008d571b          	srliw	a4,s10,0x8
    800024a0:	00e8e0b3          	or	ra,a7,a4
    800024a4:	001c9023          	sh	ra,0(s9)
    800024a8:	04535663          	bge	t1,t0,800024f4 <core_bench_list+0x2a2>
    800024ac:	89da                	mv	s3,s6
    800024ae:	000b3b03          	ld	s6,0(s6)
    800024b2:	35fd                	addiw	a1,a1,-1
    800024b4:	ce11                	beqz	a2,800024d0 <core_bench_list+0x27e>
    800024b6:	01363023          	sd	s3,0(a2)
    800024ba:	864e                	mv	a2,s3
    800024bc:	fa0d90e3          	bnez	s11,8000245c <core_bench_list+0x20a>
    800024c0:	cd95                	beqz	a1,800024fc <core_bench_list+0x2aa>
    800024c2:	040b0163          	beqz	s6,80002504 <core_bench_list+0x2b2>
    800024c6:	89da                	mv	s3,s6
    800024c8:	35fd                	addiw	a1,a1,-1
    800024ca:	000b3b03          	ld	s6,0(s6)
    800024ce:	f665                	bnez	a2,800024b6 <core_bench_list+0x264>
    800024d0:	894e                	mv	s2,s3
    800024d2:	864e                	mv	a2,s3
    800024d4:	b7e5                	j	800024bc <core_bench_list+0x26a>
    800024d6:	00893283          	ld	t0,8(s2)
    800024da:	0002c383          	lbu	t2,0(t0)
    800024de:	eaa383e3          	beq	t2,a0,80002384 <core_bench_list+0x132>
    800024e2:	00093903          	ld	s2,0(s2)
    800024e6:	fe0918e3          	bnez	s2,800024d6 <core_bench_list+0x284>
    800024ea:	00043903          	ld	s2,0(s0)
    800024ee:	e8091be3          	bnez	s2,80002384 <core_bench_list+0x132>
    800024f2:	bd4d                	j	800023a4 <core_bench_list+0x152>
    800024f4:	89a2                	mv	s3,s0
    800024f6:	3dfd                	addiw	s11,s11,-1
    800024f8:	6000                	ld	s0,0(s0)
    800024fa:	bf6d                	j	800024b4 <core_bench_list+0x262>
    800024fc:	000b0463          	beqz	s6,80002504 <core_bench_list+0x2b2>
    80002500:	845a                	mv	s0,s6
    80002502:	b5d1                	j	800023c6 <core_bench_list+0x174>
    80002504:	00063023          	sd	zero,0(a2)
    80002508:	05fb8f63          	beq	s7,t6,80002566 <core_bench_list+0x314>
    8000250c:	001e9e9b          	slliw	t4,t4,0x1
    80002510:	04090863          	beqz	s2,80002560 <core_bench_list+0x30e>
    80002514:	8b4a                	mv	s6,s2
    80002516:	4b81                	li	s7,0
    80002518:	4601                	li	a2,0
    8000251a:	4901                	li	s2,0
    8000251c:	845a                	mv	s0,s6
    8000251e:	b565                	j	800023c6 <core_bench_list+0x174>
    80002520:	18040663          	beqz	s0,800026ac <core_bench_list+0x45a>
    80002524:	000c869b          	sext.w	a3,s9
    80002528:	87a2                	mv	a5,s0
    8000252a:	a021                	j	80002532 <core_bench_list+0x2e0>
    8000252c:	639c                	ld	a5,0(a5)
    8000252e:	d6078ee3          	beqz	a5,800022aa <core_bench_list+0x58>
    80002532:	6798                	ld	a4,8(a5)
    80002534:	00074083          	lbu	ra,0(a4)
    80002538:	fed09ae3          	bne	ra,a3,8000252c <core_bench_list+0x2da>
    8000253c:	b3bd                	j	800022aa <core_bench_list+0x58>
    8000253e:	649c                	ld	a5,8(s1)
    80002540:	2305                	addiw	t1,t1,1
    80002542:	03031293          	slli	t0,t1,0x30
    80002546:	00178383          	lb	t2,1(a5)
    8000254a:	0302d313          	srli	t1,t0,0x30
    8000254e:	0013f493          	andi	s1,t2,1
    80002552:	01f4893b          	addw	s2,s1,t6
    80002556:	03091993          	slli	s3,s2,0x30
    8000255a:	0309df93          	srli	t6,s3,0x30
    8000255e:	b355                	j	80002302 <core_bench_list+0xb0>
    80002560:	00003023          	sd	zero,0(zero) # 0 <_start-0x80000000>
    80002564:	9002                	ebreak
    80002566:	00093403          	ld	s0,0(s2)
    8000256a:	c819                	beqz	s0,80002580 <core_bench_list+0x32e>
    8000256c:	00893f03          	ld	t5,8(s2)
    80002570:	85a6                	mv	a1,s1
    80002572:	000f1503          	lh	a0,0(t5)
    80002576:	b26fe0ef          	jal	ra,8000089c <crc16>
    8000257a:	6000                	ld	s0,0(s0)
    8000257c:	84aa                	mv	s1,a0
    8000257e:	f47d                	bnez	s0,8000256c <core_bench_list+0x31a>
    80002580:	70a6                	ld	ra,104(sp)
    80002582:	7406                	ld	s0,96(sp)
    80002584:	6946                	ld	s2,80(sp)
    80002586:	69a6                	ld	s3,72(sp)
    80002588:	6a06                	ld	s4,64(sp)
    8000258a:	7ae2                	ld	s5,56(sp)
    8000258c:	7b42                	ld	s6,48(sp)
    8000258e:	7ba2                	ld	s7,40(sp)
    80002590:	7c02                	ld	s8,32(sp)
    80002592:	6ce2                	ld	s9,24(sp)
    80002594:	6d42                	ld	s10,16(sp)
    80002596:	6da2                	ld	s11,8(sp)
    80002598:	8526                	mv	a0,s1
    8000259a:	64e6                	ld	s1,88(sp)
    8000259c:	6165                	addi	sp,sp,112
    8000259e:	8082                	ret
    800025a0:	4b05                	li	s6,1
    800025a2:	dc5d                	beqz	s0,80002560 <core_bench_list+0x30e>
    800025a4:	4901                	li	s2,0
    800025a6:	4a81                	li	s5,0
    800025a8:	4b81                	li	s7,0
    800025aa:	007b7813          	andi	a6,s6,7
    800025ae:	2b85                	addiw	s7,s7,1
    800025b0:	80a2                	mv	ra,s0
    800025b2:	4981                	li	s3,0
    800025b4:	06080963          	beqz	a6,80002626 <core_bench_list+0x3d4>
    800025b8:	4d05                	li	s10,1
    800025ba:	05a80f63          	beq	a6,s10,80002618 <core_bench_list+0x3c6>
    800025be:	4e89                	li	t4,2
    800025c0:	05d80763          	beq	a6,t4,8000260e <core_bench_list+0x3bc>
    800025c4:	488d                	li	a7,3
    800025c6:	03180f63          	beq	a6,a7,80002604 <core_bench_list+0x3b2>
    800025ca:	4f11                	li	t5,4
    800025cc:	03e80763          	beq	a6,t5,800025fa <core_bench_list+0x3a8>
    800025d0:	4f95                	li	t6,5
    800025d2:	01f80f63          	beq	a6,t6,800025f0 <core_bench_list+0x39e>
    800025d6:	4719                	li	a4,6
    800025d8:	00e80763          	beq	a6,a4,800025e6 <core_bench_list+0x394>
    800025dc:	00043083          	ld	ra,0(s0)
    800025e0:	4985                	li	s3,1
    800025e2:	04008c63          	beqz	ra,8000263a <core_bench_list+0x3e8>
    800025e6:	0000b083          	ld	ra,0(ra)
    800025ea:	2985                	addiw	s3,s3,1
    800025ec:	04008763          	beqz	ra,8000263a <core_bench_list+0x3e8>
    800025f0:	0000b083          	ld	ra,0(ra)
    800025f4:	2985                	addiw	s3,s3,1
    800025f6:	04008263          	beqz	ra,8000263a <core_bench_list+0x3e8>
    800025fa:	0000b083          	ld	ra,0(ra)
    800025fe:	2985                	addiw	s3,s3,1
    80002600:	02008d63          	beqz	ra,8000263a <core_bench_list+0x3e8>
    80002604:	0000b083          	ld	ra,0(ra)
    80002608:	2985                	addiw	s3,s3,1
    8000260a:	02008863          	beqz	ra,8000263a <core_bench_list+0x3e8>
    8000260e:	0000b083          	ld	ra,0(ra)
    80002612:	2985                	addiw	s3,s3,1
    80002614:	02008363          	beqz	ra,8000263a <core_bench_list+0x3e8>
    80002618:	0000b083          	ld	ra,0(ra)
    8000261c:	2985                	addiw	s3,s3,1
    8000261e:	00008e63          	beqz	ra,8000263a <core_bench_list+0x3e8>
    80002622:	01698c63          	beq	s3,s6,8000263a <core_bench_list+0x3e8>
    80002626:	0000b083          	ld	ra,0(ra)
    8000262a:	2985                	addiw	s3,s3,1
    8000262c:	00008763          	beqz	ra,8000263a <core_bench_list+0x3e8>
    80002630:	0000b083          	ld	ra,0(ra)
    80002634:	2985                	addiw	s3,s3,1
    80002636:	fa0098e3          	bnez	ra,800025e6 <core_bench_list+0x394>
    8000263a:	8d22                	mv	s10,s0
    8000263c:	8a5a                	mv	s4,s6
    8000263e:	8406                	mv	s0,ra
    80002640:	02098763          	beqz	s3,8000266e <core_bench_list+0x41c>
    80002644:	040a0063          	beqz	s4,80002684 <core_bench_list+0x432>
    80002648:	cc15                	beqz	s0,80002684 <core_bench_list+0x432>
    8000264a:	640c                	ld	a1,8(s0)
    8000264c:	008d3503          	ld	a0,8(s10)
    80002650:	866e                	mv	a2,s11
    80002652:	9f3ff0ef          	jal	ra,80002044 <cmp_complex>
    80002656:	02a05763          	blez	a0,80002684 <core_bench_list+0x432>
    8000265a:	8ea2                	mv	t4,s0
    8000265c:	6000                	ld	s0,0(s0)
    8000265e:	3a7d                	addiw	s4,s4,-1
    80002660:	00090f63          	beqz	s2,8000267e <core_bench_list+0x42c>
    80002664:	01d93023          	sd	t4,0(s2)
    80002668:	8976                	mv	s2,t4
    8000266a:	fc099de3          	bnez	s3,80002644 <core_bench_list+0x3f2>
    8000266e:	020a0063          	beqz	s4,8000268e <core_bench_list+0x43c>
    80002672:	cc19                	beqz	s0,80002690 <core_bench_list+0x43e>
    80002674:	8ea2                	mv	t4,s0
    80002676:	3a7d                	addiw	s4,s4,-1
    80002678:	6000                	ld	s0,0(s0)
    8000267a:	fe0915e3          	bnez	s2,80002664 <core_bench_list+0x412>
    8000267e:	8af6                	mv	s5,t4
    80002680:	8976                	mv	s2,t4
    80002682:	b7e5                	j	8000266a <core_bench_list+0x418>
    80002684:	8eea                	mv	t4,s10
    80002686:	39fd                	addiw	s3,s3,-1
    80002688:	000d3d03          	ld	s10,0(s10)
    8000268c:	bfd1                	j	80002660 <core_bench_list+0x40e>
    8000268e:	fc11                	bnez	s0,800025aa <core_bench_list+0x358>
    80002690:	00093023          	sd	zero,0(s2)
    80002694:	4405                	li	s0,1
    80002696:	008b8663          	beq	s7,s0,800026a2 <core_bench_list+0x450>
    8000269a:	001b1b1b          	slliw	s6,s6,0x1
    8000269e:	8456                	mv	s0,s5
    800026a0:	b709                	j	800025a2 <core_bench_list+0x350>
    800026a2:	8456                	mv	s0,s5
    800026a4:	b949                	j	80002336 <core_bench_list+0xe4>
    800026a6:	4481                	li	s1,0
    800026a8:	4c81                	li	s9,0
    800026aa:	b161                	j	80002332 <core_bench_list+0xe0>
    800026ac:	00003783          	ld	a5,0(zero) # 0 <_start-0x80000000>
    800026b0:	9002                	ebreak

00000000800026b2 <core_list_init>:
    800026b2:	47d1                	li	a5,20
    800026b4:	02f55ebb          	divuw	t4,a0,a5
    800026b8:	1141                	addi	sp,sp,-16
    800026ba:	e422                	sd	s0,8(sp)
    800026bc:	76e1                	lui	a3,0xffff8
    800026be:	0005b023          	sd	zero,0(a1)
    800026c2:	08068813          	addi	a6,a3,128 # ffffffffffff8080 <_pmem_end+0xffffffff77ff8080>
    800026c6:	02058893          	addi	a7,a1,32
    800026ca:	8332                	mv	t1,a2
    800026cc:	01058793          	addi	a5,a1,16
    800026d0:	3ef9                	addiw	t4,t4,-2
    800026d2:	020e9713          	slli	a4,t4,0x20
    800026d6:	02075293          	srli	t0,a4,0x20
    800026da:	00429513          	slli	a0,t0,0x4
    800026de:	952e                	add	a0,a0,a1
    800026e0:	e588                	sd	a0,8(a1)
    800026e2:	00229393          	slli	t2,t0,0x2
    800026e6:	01051023          	sh	a6,0(a0)
    800026ea:	00051123          	sh	zero,2(a0)
    800026ee:	000e8f9b          	sext.w	t6,t4
    800026f2:	00750833          	add	a6,a0,t2
    800026f6:	00450713          	addi	a4,a0,4
    800026fa:	38a8fa63          	bgeu	a7,a0,80002a8e <core_list_init+0x3dc>
    800026fe:	00850613          	addi	a2,a0,8
    80002702:	39067663          	bgeu	a2,a6,80002a8e <core_list_init+0x3dc>
    80002706:	e19c                	sd	a5,0(a1)
    80002708:	ed98                	sd	a4,24(a1)
    8000270a:	0005b823          	sd	zero,16(a1)
    8000270e:	fff6c413          	not	s0,a3
    80002712:	5e7d                	li	t3,-1
    80002714:	86be                	mv	a3,a5
    80002716:	01c51223          	sh	t3,4(a0)
    8000271a:	00851323          	sh	s0,6(a0)
    8000271e:	8732                	mv	a4,a2
    80002720:	87c6                	mv	a5,a7
    80002722:	1e0f8063          	beqz	t6,80002902 <core_list_init+0x250>
    80002726:	03031f13          	slli	t5,t1,0x30
    8000272a:	72e1                	lui	t0,0xffff8
    8000272c:	003ff893          	andi	a7,t6,3
    80002730:	030f5f13          	srli	t5,t5,0x30
    80002734:	4601                	li	a2,0
    80002736:	fff2ce13          	not	t3,t0
    8000273a:	0c088f63          	beqz	a7,80002818 <core_list_init+0x166>
    8000273e:	4385                	li	t2,1
    80002740:	08788563          	beq	a7,t2,800027ca <core_list_init+0x118>
    80002744:	4409                	li	s0,2
    80002746:	02888d63          	beq	a7,s0,80002780 <core_list_init+0xce>
    8000274a:	01078893          	addi	a7,a5,16
    8000274e:	1aa8fa63          	bgeu	a7,a0,80002902 <core_list_init+0x250>
    80002752:	00470293          	addi	t0,a4,4
    80002756:	0302f463          	bgeu	t0,a6,8000277e <core_list_init+0xcc>
    8000275a:	003f161b          	slliw	a2,t5,0x3
    8000275e:	e394                	sd	a3,0(a5)
    80002760:	07867693          	andi	a3,a2,120
    80002764:	e19c                	sd	a5,0(a1)
    80002766:	0086939b          	slliw	t2,a3,0x8
    8000276a:	e798                	sd	a4,8(a5)
    8000276c:	0076e433          	or	s0,a3,t2
    80002770:	00871023          	sh	s0,0(a4)
    80002774:	01c71123          	sh	t3,2(a4)
    80002778:	86be                	mv	a3,a5
    8000277a:	8716                	mv	a4,t0
    8000277c:	87c6                	mv	a5,a7
    8000277e:	4605                	li	a2,1
    80002780:	01078393          	addi	t2,a5,16
    80002784:	16a3ff63          	bgeu	t2,a0,80002902 <core_list_init+0x250>
    80002788:	00470413          	addi	s0,a4,4
    8000278c:	03047e63          	bgeu	s0,a6,800027c8 <core_list_init+0x116>
    80002790:	03061893          	slli	a7,a2,0x30
    80002794:	0308d293          	srli	t0,a7,0x30
    80002798:	01e2c8b3          	xor	a7,t0,t5
    8000279c:	0038989b          	slliw	a7,a7,0x3
    800027a0:	0788f893          	andi	a7,a7,120
    800027a4:	0072f293          	andi	t0,t0,7
    800027a8:	e394                	sd	a3,0(a5)
    800027aa:	0058e6b3          	or	a3,a7,t0
    800027ae:	e19c                	sd	a5,0(a1)
    800027b0:	0086989b          	slliw	a7,a3,0x8
    800027b4:	e798                	sd	a4,8(a5)
    800027b6:	0116e2b3          	or	t0,a3,a7
    800027ba:	00571023          	sh	t0,0(a4)
    800027be:	01c71123          	sh	t3,2(a4)
    800027c2:	86be                	mv	a3,a5
    800027c4:	8722                	mv	a4,s0
    800027c6:	879e                	mv	a5,t2
    800027c8:	2605                	addiw	a2,a2,1
    800027ca:	01078393          	addi	t2,a5,16
    800027ce:	12a3fa63          	bgeu	t2,a0,80002902 <core_list_init+0x250>
    800027d2:	00470413          	addi	s0,a4,4
    800027d6:	03047e63          	bgeu	s0,a6,80002812 <core_list_init+0x160>
    800027da:	03061893          	slli	a7,a2,0x30
    800027de:	0308d293          	srli	t0,a7,0x30
    800027e2:	01e2c8b3          	xor	a7,t0,t5
    800027e6:	0038989b          	slliw	a7,a7,0x3
    800027ea:	0788f893          	andi	a7,a7,120
    800027ee:	0072f293          	andi	t0,t0,7
    800027f2:	e394                	sd	a3,0(a5)
    800027f4:	0058e6b3          	or	a3,a7,t0
    800027f8:	e19c                	sd	a5,0(a1)
    800027fa:	0086989b          	slliw	a7,a3,0x8
    800027fe:	e798                	sd	a4,8(a5)
    80002800:	0116e2b3          	or	t0,a3,a7
    80002804:	00571023          	sh	t0,0(a4)
    80002808:	01c71123          	sh	t3,2(a4)
    8000280c:	86be                	mv	a3,a5
    8000280e:	8722                	mv	a4,s0
    80002810:	879e                	mv	a5,t2
    80002812:	2605                	addiw	a2,a2,1
    80002814:	0ecf8763          	beq	t6,a2,80002902 <core_list_init+0x250>
    80002818:	01078393          	addi	t2,a5,16
    8000281c:	0ea3f363          	bgeu	t2,a0,80002902 <core_list_init+0x250>
    80002820:	00470413          	addi	s0,a4,4
    80002824:	03047e63          	bgeu	s0,a6,80002860 <core_list_init+0x1ae>
    80002828:	03061893          	slli	a7,a2,0x30
    8000282c:	0308d293          	srli	t0,a7,0x30
    80002830:	01e2c8b3          	xor	a7,t0,t5
    80002834:	0038989b          	slliw	a7,a7,0x3
    80002838:	0788f893          	andi	a7,a7,120
    8000283c:	0072f293          	andi	t0,t0,7
    80002840:	e394                	sd	a3,0(a5)
    80002842:	0058e6b3          	or	a3,a7,t0
    80002846:	e19c                	sd	a5,0(a1)
    80002848:	0086989b          	slliw	a7,a3,0x8
    8000284c:	e798                	sd	a4,8(a5)
    8000284e:	0116e2b3          	or	t0,a3,a7
    80002852:	00571023          	sh	t0,0(a4)
    80002856:	01c71123          	sh	t3,2(a4)
    8000285a:	86be                	mv	a3,a5
    8000285c:	8722                	mv	a4,s0
    8000285e:	879e                	mv	a5,t2
    80002860:	01078393          	addi	t2,a5,16
    80002864:	2605                	addiw	a2,a2,1
    80002866:	08a3fe63          	bgeu	t2,a0,80002902 <core_list_init+0x250>
    8000286a:	00470413          	addi	s0,a4,4
    8000286e:	03047e63          	bgeu	s0,a6,800028aa <core_list_init+0x1f8>
    80002872:	03061893          	slli	a7,a2,0x30
    80002876:	0308d293          	srli	t0,a7,0x30
    8000287a:	01e2c8b3          	xor	a7,t0,t5
    8000287e:	0038989b          	slliw	a7,a7,0x3
    80002882:	0788f893          	andi	a7,a7,120
    80002886:	0072f293          	andi	t0,t0,7
    8000288a:	e394                	sd	a3,0(a5)
    8000288c:	0058e6b3          	or	a3,a7,t0
    80002890:	e19c                	sd	a5,0(a1)
    80002892:	0086989b          	slliw	a7,a3,0x8
    80002896:	e798                	sd	a4,8(a5)
    80002898:	0116e2b3          	or	t0,a3,a7
    8000289c:	00571023          	sh	t0,0(a4)
    800028a0:	01c71123          	sh	t3,2(a4)
    800028a4:	86be                	mv	a3,a5
    800028a6:	8722                	mv	a4,s0
    800028a8:	879e                	mv	a5,t2
    800028aa:	01078393          	addi	t2,a5,16
    800028ae:	0016089b          	addiw	a7,a2,1
    800028b2:	04a3f863          	bgeu	t2,a0,80002902 <core_list_init+0x250>
    800028b6:	00470413          	addi	s0,a4,4
    800028ba:	03047e63          	bgeu	s0,a6,800028f6 <core_list_init+0x244>
    800028be:	03089613          	slli	a2,a7,0x30
    800028c2:	03065293          	srli	t0,a2,0x30
    800028c6:	01e2c633          	xor	a2,t0,t5
    800028ca:	0036161b          	slliw	a2,a2,0x3
    800028ce:	07867613          	andi	a2,a2,120
    800028d2:	0072f293          	andi	t0,t0,7
    800028d6:	e394                	sd	a3,0(a5)
    800028d8:	005666b3          	or	a3,a2,t0
    800028dc:	e19c                	sd	a5,0(a1)
    800028de:	0086961b          	slliw	a2,a3,0x8
    800028e2:	e798                	sd	a4,8(a5)
    800028e4:	00c6e2b3          	or	t0,a3,a2
    800028e8:	00571023          	sh	t0,0(a4)
    800028ec:	01c71123          	sh	t3,2(a4)
    800028f0:	86be                	mv	a3,a5
    800028f2:	8722                	mv	a4,s0
    800028f4:	879e                	mv	a5,t2
    800028f6:	01078393          	addi	t2,a5,16
    800028fa:	0018861b          	addiw	a2,a7,1
    800028fe:	eca3eae3          	bltu	t2,a0,800027d2 <core_list_init+0x120>
    80002902:	6290                	ld	a2,0(a3)
    80002904:	c23d                	beqz	a2,8000296a <core_list_init+0x2b8>
    80002906:	4515                	li	a0,5
    80002908:	6f91                	lui	t6,0x4
    8000290a:	02aedebb          	divuw	t4,t4,a0
    8000290e:	4705                	li	a4,1
    80002910:	20000513          	li	a0,512
    80002914:	ffff8f13          	addi	t5,t6,-1 # 3fff <_start-0x7fffc001>
    80002918:	a005                	j	80002938 <core_list_init+0x286>
    8000291a:	00063283          	ld	t0,0(a2)
    8000291e:	10050f9b          	addiw	t6,a0,256
    80002922:	00e81123          	sh	a4,2(a6)
    80002926:	030f9813          	slli	a6,t6,0x30
    8000292a:	2705                	addiw	a4,a4,1
    8000292c:	03085513          	srli	a0,a6,0x30
    80002930:	02028d63          	beqz	t0,8000296a <core_list_init+0x2b8>
    80002934:	86b2                	mv	a3,a2
    80002936:	8616                	mv	a2,t0
    80002938:	0086b803          	ld	a6,8(a3)
    8000293c:	fdd76fe3          	bltu	a4,t4,8000291a <core_list_init+0x268>
    80002940:	00674e33          	xor	t3,a4,t1
    80002944:	70057893          	andi	a7,a0,1792
    80002948:	00063283          	ld	t0,0(a2)
    8000294c:	011e6433          	or	s0,t3,a7
    80002950:	1005079b          	addiw	a5,a0,256
    80002954:	01e476b3          	and	a3,s0,t5
    80002958:	03079393          	slli	t2,a5,0x30
    8000295c:	00d81123          	sh	a3,2(a6)
    80002960:	2705                	addiw	a4,a4,1
    80002962:	0303d513          	srli	a0,t2,0x30
    80002966:	fc0297e3          	bnez	t0,80002934 <core_list_init+0x282>
    8000296a:	4f85                	li	t6,1
    8000296c:	4801                	li	a6,0
    8000296e:	4501                	li	a0,0
    80002970:	4281                	li	t0,0
    80002972:	4385                	li	t2,1
    80002974:	007ff313          	andi	t1,t6,7
    80002978:	2285                	addiw	t0,t0,1 # ffffffffffff8001 <_pmem_end+0xffffffff77ff8001>
    8000297a:	87ae                	mv	a5,a1
    8000297c:	4601                	li	a2,0
    8000297e:	04030b63          	beqz	t1,800029d4 <core_list_init+0x322>
    80002982:	4e85                	li	t4,1
    80002984:	05d30363          	beq	t1,t4,800029ca <core_list_init+0x318>
    80002988:	4f09                	li	t5,2
    8000298a:	03e30d63          	beq	t1,t5,800029c4 <core_list_init+0x312>
    8000298e:	4e0d                	li	t3,3
    80002990:	03c30763          	beq	t1,t3,800029be <core_list_init+0x30c>
    80002994:	4891                	li	a7,4
    80002996:	03130163          	beq	t1,a7,800029b8 <core_list_init+0x306>
    8000299a:	4415                	li	s0,5
    8000299c:	00830b63          	beq	t1,s0,800029b2 <core_list_init+0x300>
    800029a0:	4699                	li	a3,6
    800029a2:	00d30563          	beq	t1,a3,800029ac <core_list_init+0x2fa>
    800029a6:	619c                	ld	a5,0(a1)
    800029a8:	4605                	li	a2,1
    800029aa:	cb9d                	beqz	a5,800029e0 <core_list_init+0x32e>
    800029ac:	639c                	ld	a5,0(a5)
    800029ae:	2605                	addiw	a2,a2,1
    800029b0:	cb85                	beqz	a5,800029e0 <core_list_init+0x32e>
    800029b2:	639c                	ld	a5,0(a5)
    800029b4:	2605                	addiw	a2,a2,1
    800029b6:	c78d                	beqz	a5,800029e0 <core_list_init+0x32e>
    800029b8:	639c                	ld	a5,0(a5)
    800029ba:	2605                	addiw	a2,a2,1
    800029bc:	c395                	beqz	a5,800029e0 <core_list_init+0x32e>
    800029be:	639c                	ld	a5,0(a5)
    800029c0:	2605                	addiw	a2,a2,1
    800029c2:	cf99                	beqz	a5,800029e0 <core_list_init+0x32e>
    800029c4:	639c                	ld	a5,0(a5)
    800029c6:	2605                	addiw	a2,a2,1
    800029c8:	cf81                	beqz	a5,800029e0 <core_list_init+0x32e>
    800029ca:	639c                	ld	a5,0(a5)
    800029cc:	2605                	addiw	a2,a2,1
    800029ce:	cb89                	beqz	a5,800029e0 <core_list_init+0x32e>
    800029d0:	00cf8863          	beq	t6,a2,800029e0 <core_list_init+0x32e>
    800029d4:	639c                	ld	a5,0(a5)
    800029d6:	2605                	addiw	a2,a2,1
    800029d8:	c781                	beqz	a5,800029e0 <core_list_init+0x32e>
    800029da:	639c                	ld	a5,0(a5)
    800029dc:	2605                	addiw	a2,a2,1
    800029de:	f7f9                	bnez	a5,800029ac <core_list_init+0x2fa>
    800029e0:	86fe                	mv	a3,t6
    800029e2:	c235                	beqz	a2,80002a46 <core_list_init+0x394>
    800029e4:	cabd                	beqz	a3,80002a5a <core_list_init+0x3a8>
    800029e6:	cbb5                	beqz	a5,80002a5a <core_list_init+0x3a8>
    800029e8:	0085b303          	ld	t1,8(a1)
    800029ec:	0087b883          	ld	a7,8(a5)
    800029f0:	00031703          	lh	a4,0(t1)
    800029f4:	00289e83          	lh	t4,2(a7)
    800029f8:	00231f03          	lh	t5,2(t1)
    800029fc:	01071e1b          	slliw	t3,a4,0x10
    80002a00:	010e541b          	srliw	s0,t3,0x10
    80002a04:	f0077713          	andi	a4,a4,-256
    80002a08:	00845e1b          	srliw	t3,s0,0x8
    80002a0c:	01c76433          	or	s0,a4,t3
    80002a10:	00831023          	sh	s0,0(t1)
    80002a14:	00089703          	lh	a4,0(a7)
    80002a18:	0107131b          	slliw	t1,a4,0x10
    80002a1c:	01035e1b          	srliw	t3,t1,0x10
    80002a20:	f0077413          	andi	s0,a4,-256
    80002a24:	008e571b          	srliw	a4,t3,0x8
    80002a28:	00e46333          	or	t1,s0,a4
    80002a2c:	00689023          	sh	t1,0(a7)
    80002a30:	03eed563          	bge	t4,t5,80002a5a <core_list_init+0x3a8>
    80002a34:	88be                	mv	a7,a5
    80002a36:	639c                	ld	a5,0(a5)
    80002a38:	36fd                	addiw	a3,a3,-1
    80002a3a:	00080d63          	beqz	a6,80002a54 <core_list_init+0x3a2>
    80002a3e:	01183023          	sd	a7,0(a6)
    80002a42:	8846                	mv	a6,a7
    80002a44:	f245                	bnez	a2,800029e4 <core_list_init+0x332>
    80002a46:	ce91                	beqz	a3,80002a62 <core_list_init+0x3b0>
    80002a48:	c385                	beqz	a5,80002a68 <core_list_init+0x3b6>
    80002a4a:	88be                	mv	a7,a5
    80002a4c:	36fd                	addiw	a3,a3,-1
    80002a4e:	639c                	ld	a5,0(a5)
    80002a50:	fe0817e3          	bnez	a6,80002a3e <core_list_init+0x38c>
    80002a54:	8546                	mv	a0,a7
    80002a56:	8846                	mv	a6,a7
    80002a58:	b7f5                	j	80002a44 <core_list_init+0x392>
    80002a5a:	88ae                	mv	a7,a1
    80002a5c:	367d                	addiw	a2,a2,-1
    80002a5e:	618c                	ld	a1,0(a1)
    80002a60:	bfe9                	j	80002a3a <core_list_init+0x388>
    80002a62:	c399                	beqz	a5,80002a68 <core_list_init+0x3b6>
    80002a64:	85be                	mv	a1,a5
    80002a66:	b739                	j	80002974 <core_list_init+0x2c2>
    80002a68:	00083023          	sd	zero,0(a6)
    80002a6c:	00728b63          	beq	t0,t2,80002a82 <core_list_init+0x3d0>
    80002a70:	001f9f9b          	slliw	t6,t6,0x1
    80002a74:	c911                	beqz	a0,80002a88 <core_list_init+0x3d6>
    80002a76:	87aa                	mv	a5,a0
    80002a78:	4281                	li	t0,0
    80002a7a:	4801                	li	a6,0
    80002a7c:	4501                	li	a0,0
    80002a7e:	85be                	mv	a1,a5
    80002a80:	bdd5                	j	80002974 <core_list_init+0x2c2>
    80002a82:	6422                	ld	s0,8(sp)
    80002a84:	0141                	addi	sp,sp,16
    80002a86:	8082                	ret
    80002a88:	00003023          	sd	zero,0(zero) # 0 <_start-0x80000000>
    80002a8c:	9002                	ebreak
    80002a8e:	4681                	li	a3,0
    80002a90:	b949                	j	80002722 <core_list_init+0x70>

0000000080002a92 <core_list_insert_new>:
    80002a92:	00063803          	ld	a6,0(a2)
    80002a96:	01080893          	addi	a7,a6,16
    80002a9a:	04e8f163          	bgeu	a7,a4,80002adc <core_list_insert_new+0x4a>
    80002a9e:	6298                	ld	a4,0(a3)
    80002aa0:	00470313          	addi	t1,a4,4
    80002aa4:	02f37c63          	bgeu	t1,a5,80002adc <core_list_insert_new+0x4a>
    80002aa8:	01163023          	sd	a7,0(a2)
    80002aac:	611c                	ld	a5,0(a0)
    80002aae:	00059283          	lh	t0,0(a1)
    80002ab2:	00259603          	lh	a2,2(a1)
    80002ab6:	00f83023          	sd	a5,0(a6)
    80002aba:	01053023          	sd	a6,0(a0)
    80002abe:	00e83423          	sd	a4,8(a6)
    80002ac2:	0006b383          	ld	t2,0(a3)
    80002ac6:	00438513          	addi	a0,t2,4
    80002aca:	e288                	sd	a0,0(a3)
    80002acc:	00883583          	ld	a1,8(a6)
    80002ad0:	8542                	mv	a0,a6
    80002ad2:	00559023          	sh	t0,0(a1)
    80002ad6:	00c59123          	sh	a2,2(a1)
    80002ada:	8082                	ret
    80002adc:	4801                	li	a6,0
    80002ade:	8542                	mv	a0,a6
    80002ae0:	8082                	ret

0000000080002ae2 <core_list_remove>:
    80002ae2:	87aa                	mv	a5,a0
    80002ae4:	6108                	ld	a0,0(a0)
    80002ae6:	6794                	ld	a3,8(a5)
    80002ae8:	6510                	ld	a2,8(a0)
    80002aea:	6118                	ld	a4,0(a0)
    80002aec:	e790                	sd	a2,8(a5)
    80002aee:	e514                	sd	a3,8(a0)
    80002af0:	e398                	sd	a4,0(a5)
    80002af2:	00053023          	sd	zero,0(a0)
    80002af6:	8082                	ret

0000000080002af8 <core_list_undo_remove>:
    80002af8:	6590                	ld	a2,8(a1)
    80002afa:	6514                	ld	a3,8(a0)
    80002afc:	6198                	ld	a4,0(a1)
    80002afe:	e510                	sd	a2,8(a0)
    80002b00:	e594                	sd	a3,8(a1)
    80002b02:	e118                	sd	a4,0(a0)
    80002b04:	e188                	sd	a0,0(a1)
    80002b06:	8082                	ret

0000000080002b08 <core_list_find>:
    80002b08:	00259603          	lh	a2,2(a1)
    80002b0c:	00064d63          	bltz	a2,80002b26 <core_list_find+0x1e>
    80002b10:	e501                	bnez	a0,80002b18 <core_list_find+0x10>
    80002b12:	a805                	j	80002b42 <core_list_find+0x3a>
    80002b14:	6108                	ld	a0,0(a0)
    80002b16:	c505                	beqz	a0,80002b3e <core_list_find+0x36>
    80002b18:	00853303          	ld	t1,8(a0)
    80002b1c:	00231383          	lh	t2,2(t1)
    80002b20:	fec39ae3          	bne	t2,a2,80002b14 <core_list_find+0xc>
    80002b24:	8082                	ret
    80002b26:	cd01                	beqz	a0,80002b3e <core_list_find+0x36>
    80002b28:	00059703          	lh	a4,0(a1)
    80002b2c:	a019                	j	80002b32 <core_list_find+0x2a>
    80002b2e:	6108                	ld	a0,0(a0)
    80002b30:	c901                	beqz	a0,80002b40 <core_list_find+0x38>
    80002b32:	651c                	ld	a5,8(a0)
    80002b34:	0007c283          	lbu	t0,0(a5)
    80002b38:	fee29be3          	bne	t0,a4,80002b2e <core_list_find+0x26>
    80002b3c:	8082                	ret
    80002b3e:	4501                	li	a0,0
    80002b40:	8082                	ret
    80002b42:	8082                	ret

0000000080002b44 <core_list_reverse>:
    80002b44:	c901                	beqz	a0,80002b54 <core_list_reverse+0x10>
    80002b46:	4701                	li	a4,0
    80002b48:	a011                	j	80002b4c <core_list_reverse+0x8>
    80002b4a:	853e                	mv	a0,a5
    80002b4c:	611c                	ld	a5,0(a0)
    80002b4e:	e118                	sd	a4,0(a0)
    80002b50:	872a                	mv	a4,a0
    80002b52:	ffe5                	bnez	a5,80002b4a <core_list_reverse+0x6>
    80002b54:	8082                	ret

0000000080002b56 <core_list_mergesort>:
    80002b56:	711d                	addi	sp,sp,-96
    80002b58:	e8a2                	sd	s0,80(sp)
    80002b5a:	f05a                	sd	s6,32(sp)
    80002b5c:	ec5e                	sd	s7,24(sp)
    80002b5e:	e466                	sd	s9,8(sp)
    80002b60:	e06a                	sd	s10,0(sp)
    80002b62:	ec86                	sd	ra,88(sp)
    80002b64:	e4a6                	sd	s1,72(sp)
    80002b66:	e0ca                	sd	s2,64(sp)
    80002b68:	fc4e                	sd	s3,56(sp)
    80002b6a:	f852                	sd	s4,48(sp)
    80002b6c:	f456                	sd	s5,40(sp)
    80002b6e:	e862                	sd	s8,16(sp)
    80002b70:	842a                	mv	s0,a0
    80002b72:	8b2e                	mv	s6,a1
    80002b74:	8d32                	mv	s10,a2
    80002b76:	4b85                	li	s7,1
    80002b78:	4c85                	li	s9,1
    80002b7a:	c861                	beqz	s0,80002c4a <core_list_mergesort+0xf4>
    80002b7c:	4c01                	li	s8,0
    80002b7e:	4481                	li	s1,0
    80002b80:	4a81                	li	s5,0
    80002b82:	007bf713          	andi	a4,s7,7
    80002b86:	2c05                	addiw	s8,s8,1
    80002b88:	87a2                	mv	a5,s0
    80002b8a:	4901                	li	s2,0
    80002b8c:	cb31                	beqz	a4,80002be0 <core_list_mergesort+0x8a>
    80002b8e:	4685                	li	a3,1
    80002b90:	04d70363          	beq	a4,a3,80002bd6 <core_list_mergesort+0x80>
    80002b94:	4089                	li	ra,2
    80002b96:	02170d63          	beq	a4,ra,80002bd0 <core_list_mergesort+0x7a>
    80002b9a:	428d                	li	t0,3
    80002b9c:	02570763          	beq	a4,t0,80002bca <core_list_mergesort+0x74>
    80002ba0:	4311                	li	t1,4
    80002ba2:	02670163          	beq	a4,t1,80002bc4 <core_list_mergesort+0x6e>
    80002ba6:	4395                	li	t2,5
    80002ba8:	00770b63          	beq	a4,t2,80002bbe <core_list_mergesort+0x68>
    80002bac:	4519                	li	a0,6
    80002bae:	00a70563          	beq	a4,a0,80002bb8 <core_list_mergesort+0x62>
    80002bb2:	601c                	ld	a5,0(s0)
    80002bb4:	4905                	li	s2,1
    80002bb6:	cb9d                	beqz	a5,80002bec <core_list_mergesort+0x96>
    80002bb8:	639c                	ld	a5,0(a5)
    80002bba:	2905                	addiw	s2,s2,1
    80002bbc:	cb85                	beqz	a5,80002bec <core_list_mergesort+0x96>
    80002bbe:	639c                	ld	a5,0(a5)
    80002bc0:	2905                	addiw	s2,s2,1
    80002bc2:	c78d                	beqz	a5,80002bec <core_list_mergesort+0x96>
    80002bc4:	639c                	ld	a5,0(a5)
    80002bc6:	2905                	addiw	s2,s2,1
    80002bc8:	c395                	beqz	a5,80002bec <core_list_mergesort+0x96>
    80002bca:	639c                	ld	a5,0(a5)
    80002bcc:	2905                	addiw	s2,s2,1
    80002bce:	cf99                	beqz	a5,80002bec <core_list_mergesort+0x96>
    80002bd0:	639c                	ld	a5,0(a5)
    80002bd2:	2905                	addiw	s2,s2,1
    80002bd4:	cf81                	beqz	a5,80002bec <core_list_mergesort+0x96>
    80002bd6:	639c                	ld	a5,0(a5)
    80002bd8:	2905                	addiw	s2,s2,1
    80002bda:	cb89                	beqz	a5,80002bec <core_list_mergesort+0x96>
    80002bdc:	012b8863          	beq	s7,s2,80002bec <core_list_mergesort+0x96>
    80002be0:	639c                	ld	a5,0(a5)
    80002be2:	2905                	addiw	s2,s2,1
    80002be4:	c781                	beqz	a5,80002bec <core_list_mergesort+0x96>
    80002be6:	639c                	ld	a5,0(a5)
    80002be8:	2905                	addiw	s2,s2,1
    80002bea:	f7f9                	bnez	a5,80002bb8 <core_list_mergesort+0x62>
    80002bec:	8a22                	mv	s4,s0
    80002bee:	89de                	mv	s3,s7
    80002bf0:	843e                	mv	s0,a5
    80002bf2:	02090463          	beqz	s2,80002c1a <core_list_mergesort+0xc4>
    80002bf6:	02098c63          	beqz	s3,80002c2e <core_list_mergesort+0xd8>
    80002bfa:	c815                	beqz	s0,80002c2e <core_list_mergesort+0xd8>
    80002bfc:	640c                	ld	a1,8(s0)
    80002bfe:	008a3503          	ld	a0,8(s4)
    80002c02:	866a                	mv	a2,s10
    80002c04:	9b02                	jalr	s6
    80002c06:	02a05463          	blez	a0,80002c2e <core_list_mergesort+0xd8>
    80002c0a:	85a2                	mv	a1,s0
    80002c0c:	6000                	ld	s0,0(s0)
    80002c0e:	39fd                	addiw	s3,s3,-1
    80002c10:	cc81                	beqz	s1,80002c28 <core_list_mergesort+0xd2>
    80002c12:	e08c                	sd	a1,0(s1)
    80002c14:	84ae                	mv	s1,a1
    80002c16:	fe0910e3          	bnez	s2,80002bf6 <core_list_mergesort+0xa0>
    80002c1a:	00098f63          	beqz	s3,80002c38 <core_list_mergesort+0xe2>
    80002c1e:	cc11                	beqz	s0,80002c3a <core_list_mergesort+0xe4>
    80002c20:	85a2                	mv	a1,s0
    80002c22:	39fd                	addiw	s3,s3,-1
    80002c24:	6000                	ld	s0,0(s0)
    80002c26:	f4f5                	bnez	s1,80002c12 <core_list_mergesort+0xbc>
    80002c28:	8aae                	mv	s5,a1
    80002c2a:	84ae                	mv	s1,a1
    80002c2c:	b7ed                	j	80002c16 <core_list_mergesort+0xc0>
    80002c2e:	85d2                	mv	a1,s4
    80002c30:	397d                	addiw	s2,s2,-1
    80002c32:	000a3a03          	ld	s4,0(s4)
    80002c36:	bfe9                	j	80002c10 <core_list_mergesort+0xba>
    80002c38:	f429                	bnez	s0,80002b82 <core_list_mergesort+0x2c>
    80002c3a:	0004b023          	sd	zero,0(s1)
    80002c3e:	019c0963          	beq	s8,s9,80002c50 <core_list_mergesort+0xfa>
    80002c42:	001b9b9b          	slliw	s7,s7,0x1
    80002c46:	8456                	mv	s0,s5
    80002c48:	bf0d                	j	80002b7a <core_list_mergesort+0x24>
    80002c4a:	00003023          	sd	zero,0(zero) # 0 <_start-0x80000000>
    80002c4e:	9002                	ebreak
    80002c50:	60e6                	ld	ra,88(sp)
    80002c52:	6446                	ld	s0,80(sp)
    80002c54:	64a6                	ld	s1,72(sp)
    80002c56:	6906                	ld	s2,64(sp)
    80002c58:	79e2                	ld	s3,56(sp)
    80002c5a:	7a42                	ld	s4,48(sp)
    80002c5c:	7b02                	ld	s6,32(sp)
    80002c5e:	6be2                	ld	s7,24(sp)
    80002c60:	6c42                	ld	s8,16(sp)
    80002c62:	6ca2                	ld	s9,8(sp)
    80002c64:	6d02                	ld	s10,0(sp)
    80002c66:	8556                	mv	a0,s5
    80002c68:	7aa2                	ld	s5,40(sp)
    80002c6a:	6125                	addi	sp,sp,96
    80002c6c:	8082                	ret

0000000080002c6e <start_time>:
    80002c6e:	1141                	addi	sp,sp,-16
    80002c70:	e406                	sd	ra,8(sp)
    80002c72:	4dc020ef          	jal	ra,8000514e <uptime>
    80002c76:	60a2                	ld	ra,8(sp)
    80002c78:	1502                	slli	a0,a0,0x20
    80002c7a:	02055293          	srli	t0,a0,0x20
    80002c7e:	00003797          	auipc	a5,0x3
    80002c82:	4e57b123          	sd	t0,1250(a5) # 80006160 <start_time_val>
    80002c86:	0141                	addi	sp,sp,16
    80002c88:	8082                	ret

0000000080002c8a <stop_time>:
    80002c8a:	1141                	addi	sp,sp,-16
    80002c8c:	e406                	sd	ra,8(sp)
    80002c8e:	4c0020ef          	jal	ra,8000514e <uptime>
    80002c92:	60a2                	ld	ra,8(sp)
    80002c94:	1502                	slli	a0,a0,0x20
    80002c96:	02055293          	srli	t0,a0,0x20
    80002c9a:	00003797          	auipc	a5,0x3
    80002c9e:	4a57bf23          	sd	t0,1214(a5) # 80006158 <stop_time_val>
    80002ca2:	0141                	addi	sp,sp,16
    80002ca4:	8082                	ret

0000000080002ca6 <get_time>:
    80002ca6:	00003517          	auipc	a0,0x3
    80002caa:	4b253503          	ld	a0,1202(a0) # 80006158 <stop_time_val>
    80002cae:	00003797          	auipc	a5,0x3
    80002cb2:	4b27b783          	ld	a5,1202(a5) # 80006160 <start_time_val>
    80002cb6:	9d1d                	subw	a0,a0,a5
    80002cb8:	8082                	ret

0000000080002cba <time_in_secs>:
    80002cba:	8082                	ret

0000000080002cbc <portable_init>:
    80002cbc:	4785                	li	a5,1
    80002cbe:	00f50023          	sb	a5,0(a0)
    80002cc2:	8082                	ret

0000000080002cc4 <portable_fini>:
    80002cc4:	00050023          	sb	zero,0(a0)
    80002cc8:	8082                	ret

0000000080002cca <core_init_state>:
    80002cca:	fff5089b          	addiw	a7,a0,-1
    80002cce:	4785                	li	a5,1
    80002cd0:	4317f763          	bgeu	a5,a7,800030fe <core_init_state+0x434>
    80002cd4:	2585                	addiw	a1,a1,1
    80002cd6:	03059693          	slli	a3,a1,0x30
    80002cda:	92c1                	srli	a3,a3,0x30
    80002cdc:	4781                	li	a5,0
    80002cde:	00003e97          	auipc	t4,0x3
    80002ce2:	95ae8e93          	addi	t4,t4,-1702 # 80005638 <intpat>
    80002ce6:	4e1d                	li	t3,7
    80002ce8:	4fa1                	li	t6,8
    80002cea:	4811                	li	a6,4
    80002cec:	4305                	li	t1,1
    80002cee:	02c00f13          	li	t5,44
    80002cf2:	a071                	j	80002d7e <core_init_state+0xb4>
    80002cf4:	3e586563          	bltu	a6,t0,800030de <core_init_state+0x414>
    80002cf8:	ffd2839b          	addiw	t2,t0,-3
    80002cfc:	03039293          	slli	t0,t2,0x30
    80002d00:	070e                	slli	a4,a4,0x3
    80002d02:	0302d593          	srli	a1,t0,0x30
    80002d06:	00ee83b3          	add	t2,t4,a4
    80002d0a:	3cb36563          	bltu	t1,a1,800030d4 <core_init_state+0x40a>
    80002d0e:	0203b703          	ld	a4,32(t2)
    80002d12:	42a1                	li	t0,8
    80002d14:	43a5                	li	t2,9
    80002d16:	007785bb          	addw	a1,a5,t2
    80002d1a:	0915f563          	bgeu	a1,a7,80002da4 <core_init_state+0xda>
    80002d1e:	00074383          	lbu	t2,0(a4)
    80002d22:	1782                	slli	a5,a5,0x20
    80002d24:	9381                	srli	a5,a5,0x20
    80002d26:	97b2                	add	a5,a5,a2
    80002d28:	00778023          	sb	t2,0(a5)
    80002d2c:	00174383          	lbu	t2,1(a4)
    80002d30:	007780a3          	sb	t2,1(a5)
    80002d34:	00274383          	lbu	t2,2(a4)
    80002d38:	00778123          	sb	t2,2(a5)
    80002d3c:	00374383          	lbu	t2,3(a4)
    80002d40:	007781a3          	sb	t2,3(a5)
    80002d44:	03028463          	beq	t0,a6,80002d6c <core_init_state+0xa2>
    80002d48:	00474383          	lbu	t2,4(a4)
    80002d4c:	00778223          	sb	t2,4(a5)
    80002d50:	00574383          	lbu	t2,5(a4)
    80002d54:	007782a3          	sb	t2,5(a5)
    80002d58:	00674383          	lbu	t2,6(a4)
    80002d5c:	00778323          	sb	t2,6(a5)
    80002d60:	01f29663          	bne	t0,t6,80002d6c <core_init_state+0xa2>
    80002d64:	00774703          	lbu	a4,7(a4)
    80002d68:	00e783a3          	sb	a4,7(a5)
    80002d6c:	2685                	addiw	a3,a3,1
    80002d6e:	92be                	add	t0,t0,a5
    80002d70:	03069793          	slli	a5,a3,0x30
    80002d74:	0307d693          	srli	a3,a5,0x30
    80002d78:	01e28023          	sb	t5,0(t0)
    80002d7c:	87ae                	mv	a5,a1
    80002d7e:	0036d713          	srli	a4,a3,0x3
    80002d82:	0076f293          	andi	t0,a3,7
    80002d86:	8b0d                	andi	a4,a4,3
    80002d88:	f7c296e3          	bne	t0,t3,80002cf4 <core_init_state+0x2a>
    80002d8c:	00371593          	slli	a1,a4,0x3
    80002d90:	43a5                	li	t2,9
    80002d92:	00be82b3          	add	t0,t4,a1
    80002d96:	007785bb          	addw	a1,a5,t2
    80002d9a:	0602b703          	ld	a4,96(t0)
    80002d9e:	42a1                	li	t0,8
    80002da0:	f715efe3          	bltu	a1,a7,80002d1e <core_init_state+0x54>
    80002da4:	34a7fc63          	bgeu	a5,a0,800030fc <core_init_state+0x432>
    80002da8:	02079813          	slli	a6,a5,0x20
    80002dac:	02085813          	srli	a6,a6,0x20
    80002db0:	010608b3          	add	a7,a2,a6
    80002db4:	41100333          	neg	t1,a7
    80002db8:	00737e13          	andi	t3,t1,7
    80002dbc:	007e0f93          	addi	t6,t3,7
    80002dc0:	4ead                	li	t4,11
    80002dc2:	40f50f3b          	subw	t5,a0,a5
    80002dc6:	33dfe463          	bltu	t6,t4,800030ee <core_init_state+0x424>
    80002dca:	ffff069b          	addiw	a3,t5,-1
    80002dce:	19f6ea63          	bltu	a3,t6,80002f62 <core_init_state+0x298>
    80002dd2:	320e0863          	beqz	t3,80003102 <core_init_state+0x438>
    80002dd6:	0017871b          	addiw	a4,a5,1
    80002dda:	00088023          	sb	zero,0(a7)
    80002dde:	4385                	li	t2,1
    80002de0:	0007029b          	sext.w	t0,a4
    80002de4:	0a7e0763          	beq	t3,t2,80002e92 <core_init_state+0x1c8>
    80002de8:	02071593          	slli	a1,a4,0x20
    80002dec:	0205d893          	srli	a7,a1,0x20
    80002df0:	01160eb3          	add	t4,a2,a7
    80002df4:	0027831b          	addiw	t1,a5,2
    80002df8:	000e8023          	sb	zero,0(t4)
    80002dfc:	4f89                	li	t6,2
    80002dfe:	0003029b          	sext.w	t0,t1
    80002e02:	09fe0863          	beq	t3,t6,80002e92 <core_init_state+0x1c8>
    80002e06:	02031693          	slli	a3,t1,0x20
    80002e0a:	0206d293          	srli	t0,a3,0x20
    80002e0e:	00560733          	add	a4,a2,t0
    80002e12:	0037839b          	addiw	t2,a5,3
    80002e16:	00070023          	sb	zero,0(a4)
    80002e1a:	458d                	li	a1,3
    80002e1c:	0003829b          	sext.w	t0,t2
    80002e20:	06be0963          	beq	t3,a1,80002e92 <core_init_state+0x1c8>
    80002e24:	02039893          	slli	a7,t2,0x20
    80002e28:	0208de93          	srli	t4,a7,0x20
    80002e2c:	01d60fb3          	add	t6,a2,t4
    80002e30:	0047831b          	addiw	t1,a5,4
    80002e34:	000f8023          	sb	zero,0(t6)
    80002e38:	4691                	li	a3,4
    80002e3a:	0003029b          	sext.w	t0,t1
    80002e3e:	04de0a63          	beq	t3,a3,80002e92 <core_init_state+0x1c8>
    80002e42:	02031293          	slli	t0,t1,0x20
    80002e46:	0202d713          	srli	a4,t0,0x20
    80002e4a:	00e603b3          	add	t2,a2,a4
    80002e4e:	0057859b          	addiw	a1,a5,5
    80002e52:	00038023          	sb	zero,0(t2)
    80002e56:	4895                	li	a7,5
    80002e58:	0005829b          	sext.w	t0,a1
    80002e5c:	031e0b63          	beq	t3,a7,80002e92 <core_init_state+0x1c8>
    80002e60:	02059e93          	slli	t4,a1,0x20
    80002e64:	020edf93          	srli	t6,t4,0x20
    80002e68:	01f606b3          	add	a3,a2,t6
    80002e6c:	0067831b          	addiw	t1,a5,6
    80002e70:	00068023          	sb	zero,0(a3)
    80002e74:	471d                	li	a4,7
    80002e76:	0003029b          	sext.w	t0,t1
    80002e7a:	00ee1c63          	bne	t3,a4,80002e92 <core_init_state+0x1c8>
    80002e7e:	02031293          	slli	t0,t1,0x20
    80002e82:	0202d393          	srli	t2,t0,0x20
    80002e86:	007605b3          	add	a1,a2,t2
    80002e8a:	00058023          	sb	zero,0(a1)
    80002e8e:	0077829b          	addiw	t0,a5,7
    80002e92:	41cf0f3b          	subw	t5,t5,t3
    80002e96:	003f579b          	srliw	a5,t5,0x3
    80002e9a:	fff7889b          	addiw	a7,a5,-1
    80002e9e:	02089e93          	slli	t4,a7,0x20
    80002ea2:	01dedf93          	srli	t6,t4,0x1d
    80002ea6:	9872                	add	a6,a6,t3
    80002ea8:	010607b3          	add	a5,a2,a6
    80002eac:	003fde13          	srli	t3,t6,0x3
    80002eb0:	00878713          	addi	a4,a5,8
    80002eb4:	007e7693          	andi	a3,t3,7
    80002eb8:	000f031b          	sext.w	t1,t5
    80002ebc:	00ef83b3          	add	t2,t6,a4
    80002ec0:	c2c9                	beqz	a3,80002f42 <core_init_state+0x278>
    80002ec2:	0007b023          	sd	zero,0(a5)
    80002ec6:	4585                	li	a1,1
    80002ec8:	87ba                	mv	a5,a4
    80002eca:	0721                	addi	a4,a4,8
    80002ecc:	06b68b63          	beq	a3,a1,80002f42 <core_init_state+0x278>
    80002ed0:	4889                	li	a7,2
    80002ed2:	03168e63          	beq	a3,a7,80002f0e <core_init_state+0x244>
    80002ed6:	4e8d                	li	t4,3
    80002ed8:	03d68763          	beq	a3,t4,80002f06 <core_init_state+0x23c>
    80002edc:	4f91                	li	t6,4
    80002ede:	03f68063          	beq	a3,t6,80002efe <core_init_state+0x234>
    80002ee2:	4815                	li	a6,5
    80002ee4:	01068963          	beq	a3,a6,80002ef6 <core_init_state+0x22c>
    80002ee8:	4e19                	li	t3,6
    80002eea:	21c69463          	bne	a3,t3,800030f2 <core_init_state+0x428>
    80002eee:	0007b023          	sd	zero,0(a5)
    80002ef2:	87ba                	mv	a5,a4
    80002ef4:	0721                	addi	a4,a4,8
    80002ef6:	0007b023          	sd	zero,0(a5)
    80002efa:	87ba                	mv	a5,a4
    80002efc:	0721                	addi	a4,a4,8
    80002efe:	0007b023          	sd	zero,0(a5)
    80002f02:	87ba                	mv	a5,a4
    80002f04:	0721                	addi	a4,a4,8
    80002f06:	0007b023          	sd	zero,0(a5)
    80002f0a:	87ba                	mv	a5,a4
    80002f0c:	0721                	addi	a4,a4,8
    80002f0e:	0007b023          	sd	zero,0(a5)
    80002f12:	87ba                	mv	a5,a4
    80002f14:	0007b023          	sd	zero,0(a5)
    80002f18:	0721                	addi	a4,a4,8
    80002f1a:	02770863          	beq	a4,t2,80002f4a <core_init_state+0x280>
    80002f1e:	00073023          	sd	zero,0(a4)
    80002f22:	00073423          	sd	zero,8(a4)
    80002f26:	00073823          	sd	zero,16(a4)
    80002f2a:	00073c23          	sd	zero,24(a4)
    80002f2e:	02073023          	sd	zero,32(a4)
    80002f32:	02073423          	sd	zero,40(a4)
    80002f36:	02073823          	sd	zero,48(a4)
    80002f3a:	03870793          	addi	a5,a4,56
    80002f3e:	04070713          	addi	a4,a4,64
    80002f42:	0007b023          	sd	zero,0(a5)
    80002f46:	fc771ce3          	bne	a4,t2,80002f1e <core_init_state+0x254>
    80002f4a:	ff8f7f13          	andi	t5,t5,-8
    80002f4e:	000f069b          	sext.w	a3,t5
    80002f52:	005f07bb          	addw	a5,t5,t0
    80002f56:	16668e63          	beq	a3,t1,800030d2 <core_init_state+0x408>
    80002f5a:	02079293          	slli	t0,a5,0x20
    80002f5e:	0202d813          	srli	a6,t0,0x20
    80002f62:	01060333          	add	t1,a2,a6
    80002f66:	0017839b          	addiw	t2,a5,1
    80002f6a:	00030023          	sb	zero,0(t1)
    80002f6e:	0003859b          	sext.w	a1,t2
    80002f72:	16a5f063          	bgeu	a1,a0,800030d2 <core_init_state+0x408>
    80002f76:	02039893          	slli	a7,t2,0x20
    80002f7a:	0208de93          	srli	t4,a7,0x20
    80002f7e:	01d60fb3          	add	t6,a2,t4
    80002f82:	00278e1b          	addiw	t3,a5,2
    80002f86:	000f8023          	sb	zero,0(t6)
    80002f8a:	000e071b          	sext.w	a4,t3
    80002f8e:	14a77263          	bgeu	a4,a0,800030d2 <core_init_state+0x408>
    80002f92:	020e1f13          	slli	t5,t3,0x20
    80002f96:	020f5693          	srli	a3,t5,0x20
    80002f9a:	00d602b3          	add	t0,a2,a3
    80002f9e:	0037881b          	addiw	a6,a5,3
    80002fa2:	00028023          	sb	zero,0(t0)
    80002fa6:	0008031b          	sext.w	t1,a6
    80002faa:	12a37463          	bgeu	t1,a0,800030d2 <core_init_state+0x408>
    80002fae:	02081393          	slli	t2,a6,0x20
    80002fb2:	0203d593          	srli	a1,t2,0x20
    80002fb6:	00b608b3          	add	a7,a2,a1
    80002fba:	00478e9b          	addiw	t4,a5,4
    80002fbe:	00088023          	sb	zero,0(a7)
    80002fc2:	000e8f9b          	sext.w	t6,t4
    80002fc6:	10aff663          	bgeu	t6,a0,800030d2 <core_init_state+0x408>
    80002fca:	020e9e13          	slli	t3,t4,0x20
    80002fce:	020e5713          	srli	a4,t3,0x20
    80002fd2:	00e60f33          	add	t5,a2,a4
    80002fd6:	0057829b          	addiw	t0,a5,5
    80002fda:	000f0023          	sb	zero,0(t5)
    80002fde:	0002869b          	sext.w	a3,t0
    80002fe2:	0ea6f863          	bgeu	a3,a0,800030d2 <core_init_state+0x408>
    80002fe6:	02029813          	slli	a6,t0,0x20
    80002fea:	02085313          	srli	t1,a6,0x20
    80002fee:	006603b3          	add	t2,a2,t1
    80002ff2:	0067859b          	addiw	a1,a5,6
    80002ff6:	00038023          	sb	zero,0(t2)
    80002ffa:	0005889b          	sext.w	a7,a1
    80002ffe:	0ca8fa63          	bgeu	a7,a0,800030d2 <core_init_state+0x408>
    80003002:	02059e93          	slli	t4,a1,0x20
    80003006:	020edf93          	srli	t6,t4,0x20
    8000300a:	01f60e33          	add	t3,a2,t6
    8000300e:	0077871b          	addiw	a4,a5,7
    80003012:	000e0023          	sb	zero,0(t3)
    80003016:	00070f1b          	sext.w	t5,a4
    8000301a:	0aaf7c63          	bgeu	t5,a0,800030d2 <core_init_state+0x408>
    8000301e:	02071293          	slli	t0,a4,0x20
    80003022:	0202d693          	srli	a3,t0,0x20
    80003026:	00d60833          	add	a6,a2,a3
    8000302a:	0087831b          	addiw	t1,a5,8
    8000302e:	00080023          	sb	zero,0(a6)
    80003032:	0003039b          	sext.w	t2,t1
    80003036:	08a3fe63          	bgeu	t2,a0,800030d2 <core_init_state+0x408>
    8000303a:	02031593          	slli	a1,t1,0x20
    8000303e:	0205d893          	srli	a7,a1,0x20
    80003042:	01160eb3          	add	t4,a2,a7
    80003046:	00978f9b          	addiw	t6,a5,9
    8000304a:	000e8023          	sb	zero,0(t4)
    8000304e:	000f8e1b          	sext.w	t3,t6
    80003052:	08ae7063          	bgeu	t3,a0,800030d2 <core_init_state+0x408>
    80003056:	020f9713          	slli	a4,t6,0x20
    8000305a:	02075f13          	srli	t5,a4,0x20
    8000305e:	01e602b3          	add	t0,a2,t5
    80003062:	00a7869b          	addiw	a3,a5,10
    80003066:	00028023          	sb	zero,0(t0)
    8000306a:	0006881b          	sext.w	a6,a3
    8000306e:	06a87263          	bgeu	a6,a0,800030d2 <core_init_state+0x408>
    80003072:	02069313          	slli	t1,a3,0x20
    80003076:	02035393          	srli	t2,t1,0x20
    8000307a:	007605b3          	add	a1,a2,t2
    8000307e:	00b7889b          	addiw	a7,a5,11
    80003082:	00058023          	sb	zero,0(a1)
    80003086:	00088e9b          	sext.w	t4,a7
    8000308a:	04aef463          	bgeu	t4,a0,800030d2 <core_init_state+0x408>
    8000308e:	02089f93          	slli	t6,a7,0x20
    80003092:	020fde13          	srli	t3,t6,0x20
    80003096:	01c60733          	add	a4,a2,t3
    8000309a:	00c78f1b          	addiw	t5,a5,12
    8000309e:	00070023          	sb	zero,0(a4)
    800030a2:	000f029b          	sext.w	t0,t5
    800030a6:	02a2f663          	bgeu	t0,a0,800030d2 <core_init_state+0x408>
    800030aa:	020f1693          	slli	a3,t5,0x20
    800030ae:	0206d813          	srli	a6,a3,0x20
    800030b2:	01060333          	add	t1,a2,a6
    800030b6:	27b5                	addiw	a5,a5,13
    800030b8:	00030023          	sb	zero,0(t1)
    800030bc:	0007839b          	sext.w	t2,a5
    800030c0:	00a3f963          	bgeu	t2,a0,800030d2 <core_init_state+0x408>
    800030c4:	02079513          	slli	a0,a5,0x20
    800030c8:	02055593          	srli	a1,a0,0x20
    800030cc:	962e                	add	a2,a2,a1
    800030ce:	00060023          	sb	zero,0(a2)
    800030d2:	8082                	ret
    800030d4:	0003b703          	ld	a4,0(t2)
    800030d8:	4291                	li	t0,4
    800030da:	4395                	li	t2,5
    800030dc:	b92d                	j	80002d16 <core_init_state+0x4c>
    800030de:	00371593          	slli	a1,a4,0x3
    800030e2:	00be8733          	add	a4,t4,a1
    800030e6:	6338                	ld	a4,64(a4)
    800030e8:	43a5                	li	t2,9
    800030ea:	42a1                	li	t0,8
    800030ec:	b12d                	j	80002d16 <core_init_state+0x4c>
    800030ee:	4fad                	li	t6,11
    800030f0:	b9e9                	j	80002dca <core_init_state+0x100>
    800030f2:	0007b023          	sd	zero,0(a5)
    800030f6:	87ba                	mv	a5,a4
    800030f8:	0721                	addi	a4,a4,8
    800030fa:	bbd5                	j	80002eee <core_init_state+0x224>
    800030fc:	8082                	ret
    800030fe:	4781                	li	a5,0
    80003100:	b165                	j	80002da8 <core_init_state+0xde>
    80003102:	82be                	mv	t0,a5
    80003104:	b379                	j	80002e92 <core_init_state+0x1c8>

0000000080003106 <core_state_transition>:
    80003106:	00053303          	ld	t1,0(a0)
    8000310a:	8e2a                	mv	t3,a0
    8000310c:	4501                	li	a0,0
    8000310e:	00034803          	lbu	a6,0(t1)
    80003112:	871a                	mv	a4,t1
    80003114:	10080563          	beqz	a6,8000321e <core_state_transition+0x118>
    80003118:	00130693          	addi	a3,t1,1
    8000311c:	02c00513          	li	a0,44
    80003120:	8736                	mv	a4,a3
    80003122:	24a80563          	beq	a6,a0,8000336c <core_state_transition+0x266>
    80003126:	4190                	lw	a2,0(a1)
    80003128:	fd08079b          	addiw	a5,a6,-48
    8000312c:	0ff7f293          	zext.b	t0,a5
    80003130:	48a5                	li	a7,9
    80003132:	0016039b          	addiw	t2,a2,1
    80003136:	0e58e763          	bltu	a7,t0,80003224 <core_state_transition+0x11e>
    8000313a:	0075a023          	sw	t2,0(a1)
    8000313e:	00134783          	lbu	a5,1(t1)
    80003142:	22078963          	beqz	a5,80003374 <core_state_transition+0x26e>
    80003146:	22a78963          	beq	a5,a0,80003378 <core_state_transition+0x272>
    8000314a:	fd078e9b          	addiw	t4,a5,-48
    8000314e:	02e00513          	li	a0,46
    80003152:	4625                	li	a2,9
    80003154:	02c00293          	li	t0,44
    80003158:	0ffeff13          	zext.b	t5,t4
    8000315c:	00170f93          	addi	t6,a4,1
    80003160:	02a78363          	beq	a5,a0,80003186 <core_state_transition+0x80>
    80003164:	0fe66863          	bltu	a2,t5,80003254 <core_state_transition+0x14e>
    80003168:	000fc783          	lbu	a5,0(t6)
    8000316c:	20078363          	beqz	a5,80003372 <core_state_transition+0x26c>
    80003170:	24578163          	beq	a5,t0,800033b2 <core_state_transition+0x2ac>
    80003174:	877e                	mv	a4,t6
    80003176:	fd078e9b          	addiw	t4,a5,-48
    8000317a:	0ffeff13          	zext.b	t5,t4
    8000317e:	00170f93          	addi	t6,a4,1
    80003182:	fea791e3          	bne	a5,a0,80003164 <core_state_transition+0x5e>
    80003186:	0105a883          	lw	a7,16(a1)
    8000318a:	0018831b          	addiw	t1,a7,1
    8000318e:	0065a823          	sw	t1,16(a1)
    80003192:	00174283          	lbu	t0,1(a4)
    80003196:	20028b63          	beqz	t0,800033ac <core_state_transition+0x2a6>
    8000319a:	02c00393          	li	t2,44
    8000319e:	20728f63          	beq	t0,t2,800033bc <core_state_transition+0x2b6>
    800031a2:	fd02871b          	addiw	a4,t0,-48
    800031a6:	04500e93          	li	t4,69
    800031aa:	0df2f793          	andi	a5,t0,223
    800031ae:	0ff77693          	zext.b	a3,a4
    800031b2:	4f25                	li	t5,9
    800031b4:	02c00813          	li	a6,44
    800031b8:	001f8713          	addi	a4,t6,1
    800031bc:	03d78563          	beq	a5,t4,800031e6 <core_state_transition+0xe0>
    800031c0:	12df6263          	bltu	t5,a3,800032e4 <core_state_transition+0x1de>
    800031c4:	00074283          	lbu	t0,0(a4)
    800031c8:	1c028163          	beqz	t0,8000338a <core_state_transition+0x284>
    800031cc:	1f028d63          	beq	t0,a6,800033c6 <core_state_transition+0x2c0>
    800031d0:	8fba                	mv	t6,a4
    800031d2:	0df2f793          	andi	a5,t0,223
    800031d6:	fd02871b          	addiw	a4,t0,-48
    800031da:	0ff77693          	zext.b	a3,a4
    800031de:	001f8713          	addi	a4,t6,1
    800031e2:	fdd79fe3          	bne	a5,t4,800031c0 <core_state_transition+0xba>
    800031e6:	49c8                	lw	a0,20(a1)
    800031e8:	0015089b          	addiw	a7,a0,1
    800031ec:	0115aa23          	sw	a7,20(a1)
    800031f0:	001fc303          	lbu	t1,1(t6)
    800031f4:	450d                	li	a0,3
    800031f6:	02030463          	beqz	t1,8000321e <core_state_transition+0x118>
    800031fa:	02c00393          	li	t2,44
    800031fe:	18730863          	beq	t1,t2,8000338e <core_state_transition+0x288>
    80003202:	00c5ae83          	lw	t4,12(a1)
    80003206:	fd530f1b          	addiw	t5,t1,-43
    8000320a:	0fdf7813          	andi	a6,t5,253
    8000320e:	001e879b          	addiw	a5,t4,1
    80003212:	002f8713          	addi	a4,t6,2
    80003216:	04080963          	beqz	a6,80003268 <core_state_transition+0x162>
    8000321a:	c5dc                	sw	a5,12(a1)
    8000321c:	4505                	li	a0,1
    8000321e:	00ee3023          	sd	a4,0(t3)
    80003222:	8082                	ret
    80003224:	02d00e93          	li	t4,45
    80003228:	0dd80f63          	beq	a6,t4,80003306 <core_state_transition+0x200>
    8000322c:	02e00f13          	li	t5,46
    80003230:	0de80163          	beq	a6,t5,800032f2 <core_state_transition+0x1ec>
    80003234:	02b00f93          	li	t6,43
    80003238:	0df80763          	beq	a6,t6,80003306 <core_state_transition+0x200>
    8000323c:	0045a303          	lw	t1,4(a1)
    80003240:	0075a023          	sw	t2,0(a1)
    80003244:	4505                	li	a0,1
    80003246:	0013039b          	addiw	t2,t1,1
    8000324a:	0075a223          	sw	t2,4(a1)
    8000324e:	00ee3023          	sd	a4,0(t3)
    80003252:	8082                	ret
    80003254:	0105a803          	lw	a6,16(a1)
    80003258:	877e                	mv	a4,t6
    8000325a:	4505                	li	a0,1
    8000325c:	0018069b          	addiw	a3,a6,1
    80003260:	c994                	sw	a3,16(a1)
    80003262:	00ee3023          	sd	a4,0(t3)
    80003266:	8082                	ret
    80003268:	c5dc                	sw	a5,12(a1)
    8000326a:	002fc683          	lbu	a3,2(t6)
    8000326e:	10068c63          	beqz	a3,80003386 <core_state_transition+0x280>
    80003272:	12768363          	beq	a3,t2,80003398 <core_state_transition+0x292>
    80003276:	4d98                	lw	a4,24(a1)
    80003278:	fd06861b          	addiw	a2,a3,-48
    8000327c:	0ff67293          	zext.b	t0,a2
    80003280:	4525                	li	a0,9
    80003282:	0017089b          	addiw	a7,a4,1
    80003286:	003f8713          	addi	a4,t6,3
    8000328a:	02556f63          	bltu	a0,t0,800032c8 <core_state_transition+0x1c2>
    8000328e:	0115ac23          	sw	a7,24(a1)
    80003292:	003fc783          	lbu	a5,3(t6)
    80003296:	c7f5                	beqz	a5,80003382 <core_state_transition+0x27c>
    80003298:	10778563          	beq	a5,t2,800033a2 <core_state_transition+0x29c>
    8000329c:	4fa5                	li	t6,9
    8000329e:	02c00313          	li	t1,44
    800032a2:	fd07839b          	addiw	t2,a5,-48
    800032a6:	0ff3fe93          	zext.b	t4,t2
    800032aa:	0705                	addi	a4,a4,1
    800032ac:	03dfe463          	bltu	t6,t4,800032d4 <core_state_transition+0x1ce>
    800032b0:	00074783          	lbu	a5,0(a4)
    800032b4:	c7f9                	beqz	a5,80003382 <core_state_transition+0x27c>
    800032b6:	fe6796e3          	bne	a5,t1,800032a2 <core_state_transition+0x19c>
    800032ba:	00170693          	addi	a3,a4,1
    800032be:	451d                	li	a0,7
    800032c0:	8736                	mv	a4,a3
    800032c2:	00ee3023          	sd	a4,0(t3)
    800032c6:	8082                	ret
    800032c8:	0115ac23          	sw	a7,24(a1)
    800032cc:	4505                	li	a0,1
    800032ce:	00ee3023          	sd	a4,0(t3)
    800032d2:	8082                	ret
    800032d4:	0045af03          	lw	t5,4(a1)
    800032d8:	4505                	li	a0,1
    800032da:	001f081b          	addiw	a6,t5,1
    800032de:	0105a223          	sw	a6,4(a1)
    800032e2:	bf35                	j	8000321e <core_state_transition+0x118>
    800032e4:	0145af83          	lw	t6,20(a1)
    800032e8:	4505                	li	a0,1
    800032ea:	001f861b          	addiw	a2,t6,1
    800032ee:	c9d0                	sw	a2,20(a1)
    800032f0:	b73d                	j	8000321e <core_state_transition+0x118>
    800032f2:	0075a023          	sw	t2,0(a1)
    800032f6:	00134283          	lbu	t0,1(t1)
    800032fa:	08028863          	beqz	t0,8000338a <core_state_transition+0x284>
    800032fe:	0ca28b63          	beq	t0,a0,800033d4 <core_state_transition+0x2ce>
    80003302:	8fb6                	mv	t6,a3
    80003304:	bd79                	j	800031a2 <core_state_transition+0x9c>
    80003306:	0075a023          	sw	t2,0(a1)
    8000330a:	00134503          	lbu	a0,1(t1)
    8000330e:	c169                	beqz	a0,800033d0 <core_state_transition+0x2ca>
    80003310:	02c00813          	li	a6,44
    80003314:	0d050563          	beq	a0,a6,800033de <core_state_transition+0x2d8>
    80003318:	4594                	lw	a3,8(a1)
    8000331a:	fd05071b          	addiw	a4,a0,-48
    8000331e:	0ff77793          	zext.b	a5,a4
    80003322:	4625                	li	a2,9
    80003324:	0016829b          	addiw	t0,a3,1
    80003328:	00230713          	addi	a4,t1,2
    8000332c:	00f67a63          	bgeu	a2,a5,80003340 <core_state_transition+0x23a>
    80003330:	02e00893          	li	a7,46
    80003334:	03150263          	beq	a0,a7,80003358 <core_state_transition+0x252>
    80003338:	0055a423          	sw	t0,8(a1)
    8000333c:	4505                	li	a0,1
    8000333e:	b5c5                	j	8000321e <core_state_transition+0x118>
    80003340:	0055a423          	sw	t0,8(a1)
    80003344:	00234783          	lbu	a5,2(t1)
    80003348:	c795                	beqz	a5,80003374 <core_state_transition+0x26e>
    8000334a:	e10790e3          	bne	a5,a6,8000314a <core_state_transition+0x44>
    8000334e:	00330693          	addi	a3,t1,3
    80003352:	4511                	li	a0,4
    80003354:	8736                	mv	a4,a3
    80003356:	b7b5                	j	800032c2 <core_state_transition+0x1bc>
    80003358:	0055a423          	sw	t0,8(a1)
    8000335c:	00234283          	lbu	t0,2(t1)
    80003360:	02028563          	beqz	t0,8000338a <core_state_transition+0x284>
    80003364:	09028163          	beq	t0,a6,800033e6 <core_state_transition+0x2e0>
    80003368:	8fba                	mv	t6,a4
    8000336a:	bd25                	j	800031a2 <core_state_transition+0x9c>
    8000336c:	4501                	li	a0,0
    8000336e:	8736                	mv	a4,a3
    80003370:	bf89                	j	800032c2 <core_state_transition+0x1bc>
    80003372:	877e                	mv	a4,t6
    80003374:	4511                	li	a0,4
    80003376:	b565                	j	8000321e <core_state_transition+0x118>
    80003378:	00230693          	addi	a3,t1,2
    8000337c:	4511                	li	a0,4
    8000337e:	8736                	mv	a4,a3
    80003380:	b789                	j	800032c2 <core_state_transition+0x1bc>
    80003382:	451d                	li	a0,7
    80003384:	bd69                	j	8000321e <core_state_transition+0x118>
    80003386:	4519                	li	a0,6
    80003388:	bd59                	j	8000321e <core_state_transition+0x118>
    8000338a:	4515                	li	a0,5
    8000338c:	bd49                	j	8000321e <core_state_transition+0x118>
    8000338e:	002f8693          	addi	a3,t6,2
    80003392:	450d                	li	a0,3
    80003394:	8736                	mv	a4,a3
    80003396:	b735                	j	800032c2 <core_state_transition+0x1bc>
    80003398:	003f8693          	addi	a3,t6,3
    8000339c:	4519                	li	a0,6
    8000339e:	8736                	mv	a4,a3
    800033a0:	b70d                	j	800032c2 <core_state_transition+0x1bc>
    800033a2:	004f8693          	addi	a3,t6,4
    800033a6:	451d                	li	a0,7
    800033a8:	8736                	mv	a4,a3
    800033aa:	bf21                	j	800032c2 <core_state_transition+0x1bc>
    800033ac:	877e                	mv	a4,t6
    800033ae:	4515                	li	a0,5
    800033b0:	b5bd                	j	8000321e <core_state_transition+0x118>
    800033b2:	00270693          	addi	a3,a4,2
    800033b6:	4511                	li	a0,4
    800033b8:	8736                	mv	a4,a3
    800033ba:	b721                	j	800032c2 <core_state_transition+0x1bc>
    800033bc:	00270693          	addi	a3,a4,2
    800033c0:	4515                	li	a0,5
    800033c2:	8736                	mv	a4,a3
    800033c4:	bdfd                	j	800032c2 <core_state_transition+0x1bc>
    800033c6:	002f8693          	addi	a3,t6,2
    800033ca:	4515                	li	a0,5
    800033cc:	8736                	mv	a4,a3
    800033ce:	bdd5                	j	800032c2 <core_state_transition+0x1bc>
    800033d0:	4509                	li	a0,2
    800033d2:	b5b1                	j	8000321e <core_state_transition+0x118>
    800033d4:	00230693          	addi	a3,t1,2
    800033d8:	4515                	li	a0,5
    800033da:	8736                	mv	a4,a3
    800033dc:	b5dd                	j	800032c2 <core_state_transition+0x1bc>
    800033de:	0685                	addi	a3,a3,1
    800033e0:	4509                	li	a0,2
    800033e2:	8736                	mv	a4,a3
    800033e4:	bdf9                	j	800032c2 <core_state_transition+0x1bc>
    800033e6:	00330693          	addi	a3,t1,3
    800033ea:	4515                	li	a0,5
    800033ec:	8736                	mv	a4,a3
    800033ee:	bdd1                	j	800032c2 <core_state_transition+0x1bc>

00000000800033f0 <core_bench_state>:
    800033f0:	7135                	addi	sp,sp,-160
    800033f2:	e922                	sd	s0,144(sp)
    800033f4:	e526                	sd	s1,136(sp)
    800033f6:	e14a                	sd	s2,128(sp)
    800033f8:	fcce                	sd	s3,120(sp)
    800033fa:	f8d2                	sd	s4,112(sp)
    800033fc:	f4d6                	sd	s5,104(sp)
    800033fe:	f0da                	sd	s6,96(sp)
    80003400:	ed06                	sd	ra,152(sp)
    80003402:	ecde                	sd	s7,88(sp)
    80003404:	0005cb83          	lbu	s7,0(a1)
    80003408:	e42e                	sd	a1,8(sp)
    8000340a:	f802                	sd	zero,48(sp)
    8000340c:	e802                	sd	zero,16(sp)
    8000340e:	fc02                	sd	zero,56(sp)
    80003410:	ec02                	sd	zero,24(sp)
    80003412:	e082                	sd	zero,64(sp)
    80003414:	f002                	sd	zero,32(sp)
    80003416:	e482                	sd	zero,72(sp)
    80003418:	f402                	sd	zero,40(sp)
    8000341a:	842e                	mv	s0,a1
    8000341c:	8aaa                	mv	s5,a0
    8000341e:	8b32                	mv	s6,a2
    80003420:	89b6                	mv	s3,a3
    80003422:	8a3a                	mv	s4,a4
    80003424:	84be                	mv	s1,a5
    80003426:	03010913          	addi	s2,sp,48
    8000342a:	020b8863          	beqz	s7,8000345a <core_bench_state+0x6a>
    8000342e:	85ca                	mv	a1,s2
    80003430:	0028                	addi	a0,sp,8
    80003432:	cd5ff0ef          	jal	ra,80003106 <core_state_transition>
    80003436:	02051793          	slli	a5,a0,0x20
    8000343a:	01e7d813          	srli	a6,a5,0x1e
    8000343e:	05080293          	addi	t0,a6,80
    80003442:	00228333          	add	t1,t0,sp
    80003446:	6722                	ld	a4,8(sp)
    80003448:	fc032383          	lw	t2,-64(t1)
    8000344c:	00074503          	lbu	a0,0(a4)
    80003450:	0013859b          	addiw	a1,t2,1
    80003454:	fcb32023          	sw	a1,-64(t1)
    80003458:	f979                	bnez	a0,8000342e <core_bench_state+0x3e>
    8000345a:	020a9093          	slli	ra,s5,0x20
    8000345e:	0200d613          	srli	a2,ra,0x20
    80003462:	e422                	sd	s0,8(sp)
    80003464:	00c40ab3          	add	s5,s0,a2
    80003468:	39547163          	bgeu	s0,s5,800037ea <core_bench_state+0x3fa>
    8000346c:	4685                	li	a3,1
    8000346e:	000a089b          	sext.w	a7,s4
    80003472:	34da1d63          	bne	s4,a3,800037cc <core_bench_state+0x3dc>
    80003476:	00044b83          	lbu	s7,0(s0)
    8000347a:	fff44793          	not	a5,s0
    8000347e:	00fa8833          	add	a6,s5,a5
    80003482:	02c00293          	li	t0,44
    80003486:	00787313          	andi	t1,a6,7
    8000348a:	005b8663          	beq	s7,t0,80003496 <core_bench_state+0xa6>
    8000348e:	016bc3b3          	xor	t2,s7,s6
    80003492:	00740023          	sb	t2,0(s0)
    80003496:	00140793          	addi	a5,s0,1
    8000349a:	1357fd63          	bgeu	a5,s5,800035d4 <core_bench_state+0x1e4>
    8000349e:	0a030563          	beqz	t1,80003548 <core_bench_state+0x158>
    800034a2:	4705                	li	a4,1
    800034a4:	08e30763          	beq	t1,a4,80003532 <core_bench_state+0x142>
    800034a8:	4509                	li	a0,2
    800034aa:	06a30b63          	beq	t1,a0,80003520 <core_bench_state+0x130>
    800034ae:	458d                	li	a1,3
    800034b0:	04b30f63          	beq	t1,a1,8000350e <core_bench_state+0x11e>
    800034b4:	4091                	li	ra,4
    800034b6:	04130363          	beq	t1,ra,800034fc <core_bench_state+0x10c>
    800034ba:	4615                	li	a2,5
    800034bc:	02c30763          	beq	t1,a2,800034ea <core_bench_state+0xfa>
    800034c0:	4699                	li	a3,6
    800034c2:	00d30b63          	beq	t1,a3,800034d8 <core_bench_state+0xe8>
    800034c6:	0007ce03          	lbu	t3,0(a5)
    800034ca:	005e0663          	beq	t3,t0,800034d6 <core_bench_state+0xe6>
    800034ce:	016e4eb3          	xor	t4,t3,s6
    800034d2:	01d78023          	sb	t4,0(a5)
    800034d6:	0785                	addi	a5,a5,1
    800034d8:	0007cf03          	lbu	t5,0(a5)
    800034dc:	005f0663          	beq	t5,t0,800034e8 <core_bench_state+0xf8>
    800034e0:	016f4fb3          	xor	t6,t5,s6
    800034e4:	01f78023          	sb	t6,0(a5)
    800034e8:	0785                	addi	a5,a5,1
    800034ea:	0007cb83          	lbu	s7,0(a5)
    800034ee:	005b8663          	beq	s7,t0,800034fa <core_bench_state+0x10a>
    800034f2:	016bc833          	xor	a6,s7,s6
    800034f6:	01078023          	sb	a6,0(a5)
    800034fa:	0785                	addi	a5,a5,1
    800034fc:	0007c303          	lbu	t1,0(a5)
    80003500:	00530663          	beq	t1,t0,8000350c <core_bench_state+0x11c>
    80003504:	016343b3          	xor	t2,t1,s6
    80003508:	00778023          	sb	t2,0(a5)
    8000350c:	0785                	addi	a5,a5,1
    8000350e:	0007c703          	lbu	a4,0(a5)
    80003512:	00570663          	beq	a4,t0,8000351e <core_bench_state+0x12e>
    80003516:	01674533          	xor	a0,a4,s6
    8000351a:	00a78023          	sb	a0,0(a5)
    8000351e:	0785                	addi	a5,a5,1
    80003520:	0007c583          	lbu	a1,0(a5)
    80003524:	00558663          	beq	a1,t0,80003530 <core_bench_state+0x140>
    80003528:	0165c0b3          	xor	ra,a1,s6
    8000352c:	00178023          	sb	ra,0(a5)
    80003530:	0785                	addi	a5,a5,1
    80003532:	0007c603          	lbu	a2,0(a5)
    80003536:	00560663          	beq	a2,t0,80003542 <core_bench_state+0x152>
    8000353a:	016646b3          	xor	a3,a2,s6
    8000353e:	00d78023          	sb	a3,0(a5)
    80003542:	0785                	addi	a5,a5,1
    80003544:	0957f863          	bgeu	a5,s5,800035d4 <core_bench_state+0x1e4>
    80003548:	0007ce03          	lbu	t3,0(a5)
    8000354c:	005e0663          	beq	t3,t0,80003558 <core_bench_state+0x168>
    80003550:	016e4eb3          	xor	t4,t3,s6
    80003554:	01d78023          	sb	t4,0(a5)
    80003558:	0017cf03          	lbu	t5,1(a5)
    8000355c:	00178f93          	addi	t6,a5,1
    80003560:	005f0663          	beq	t5,t0,8000356c <core_bench_state+0x17c>
    80003564:	016f4bb3          	xor	s7,t5,s6
    80003568:	017780a3          	sb	s7,1(a5)
    8000356c:	001fc783          	lbu	a5,1(t6)
    80003570:	00578663          	beq	a5,t0,8000357c <core_bench_state+0x18c>
    80003574:	0167c833          	xor	a6,a5,s6
    80003578:	010f80a3          	sb	a6,1(t6)
    8000357c:	002fc303          	lbu	t1,2(t6)
    80003580:	00530663          	beq	t1,t0,8000358c <core_bench_state+0x19c>
    80003584:	016343b3          	xor	t2,t1,s6
    80003588:	007f8123          	sb	t2,2(t6)
    8000358c:	003fc703          	lbu	a4,3(t6)
    80003590:	00570663          	beq	a4,t0,8000359c <core_bench_state+0x1ac>
    80003594:	01674533          	xor	a0,a4,s6
    80003598:	00af81a3          	sb	a0,3(t6)
    8000359c:	004fc583          	lbu	a1,4(t6)
    800035a0:	00558663          	beq	a1,t0,800035ac <core_bench_state+0x1bc>
    800035a4:	0165c0b3          	xor	ra,a1,s6
    800035a8:	001f8223          	sb	ra,4(t6)
    800035ac:	005fc603          	lbu	a2,5(t6)
    800035b0:	00560663          	beq	a2,t0,800035bc <core_bench_state+0x1cc>
    800035b4:	016646b3          	xor	a3,a2,s6
    800035b8:	00df82a3          	sb	a3,5(t6)
    800035bc:	006fce03          	lbu	t3,6(t6)
    800035c0:	005e0663          	beq	t3,t0,800035cc <core_bench_state+0x1dc>
    800035c4:	016e4eb3          	xor	t4,t3,s6
    800035c8:	01df8323          	sb	t4,6(t6)
    800035cc:	007f8793          	addi	a5,t6,7
    800035d0:	f757ece3          	bltu	a5,s5,80003548 <core_bench_state+0x158>
    800035d4:	00044b03          	lbu	s6,0(s0)
    800035d8:	200b0c63          	beqz	s6,800037f0 <core_bench_state+0x400>
    800035dc:	85ca                	mv	a1,s2
    800035de:	0028                	addi	a0,sp,8
    800035e0:	b27ff0ef          	jal	ra,80003106 <core_state_transition>
    800035e4:	02051893          	slli	a7,a0,0x20
    800035e8:	01e8d293          	srli	t0,a7,0x1e
    800035ec:	05028f13          	addi	t5,t0,80
    800035f0:	002f0fb3          	add	t6,t5,sp
    800035f4:	6822                	ld	a6,8(sp)
    800035f6:	fc0fab83          	lw	s7,-64(t6)
    800035fa:	00084303          	lbu	t1,0(a6)
    800035fe:	001b839b          	addiw	t2,s7,1
    80003602:	fc7fa023          	sw	t2,-64(t6)
    80003606:	fc031be3          	bnez	t1,800035dc <core_bench_state+0x1ec>
    8000360a:	e422                	sd	s0,8(sp)
    8000360c:	000a089b          	sext.w	a7,s4
    80003610:	17547563          	bgeu	s0,s5,8000377a <core_bench_state+0x38a>
    80003614:	4705                	li	a4,1
    80003616:	02c00513          	li	a0,44
    8000361a:	18e89d63          	bne	a7,a4,800037b4 <core_bench_state+0x3c4>
    8000361e:	00044a03          	lbu	s4,0(s0)
    80003622:	fff44593          	not	a1,s0
    80003626:	00ba80b3          	add	ra,s5,a1
    8000362a:	02c00613          	li	a2,44
    8000362e:	0070fe13          	andi	t3,ra,7
    80003632:	00ca0663          	beq	s4,a2,8000363e <core_bench_state+0x24e>
    80003636:	013a46b3          	xor	a3,s4,s3
    8000363a:	00d40023          	sb	a3,0(s0)
    8000363e:	0405                	addi	s0,s0,1
    80003640:	13547d63          	bgeu	s0,s5,8000377a <core_bench_state+0x38a>
    80003644:	0a0e0563          	beqz	t3,800036ee <core_bench_state+0x2fe>
    80003648:	4e85                	li	t4,1
    8000364a:	09de0763          	beq	t3,t4,800036d8 <core_bench_state+0x2e8>
    8000364e:	4789                	li	a5,2
    80003650:	06fe0b63          	beq	t3,a5,800036c6 <core_bench_state+0x2d6>
    80003654:	4b0d                	li	s6,3
    80003656:	056e0f63          	beq	t3,s6,800036b4 <core_bench_state+0x2c4>
    8000365a:	4891                	li	a7,4
    8000365c:	051e0363          	beq	t3,a7,800036a2 <core_bench_state+0x2b2>
    80003660:	4295                	li	t0,5
    80003662:	025e0763          	beq	t3,t0,80003690 <core_bench_state+0x2a0>
    80003666:	4f19                	li	t5,6
    80003668:	01ee0b63          	beq	t3,t5,8000367e <core_bench_state+0x28e>
    8000366c:	00044f83          	lbu	t6,0(s0)
    80003670:	00cf8663          	beq	t6,a2,8000367c <core_bench_state+0x28c>
    80003674:	013fcbb3          	xor	s7,t6,s3
    80003678:	01740023          	sb	s7,0(s0)
    8000367c:	0405                	addi	s0,s0,1
    8000367e:	00044803          	lbu	a6,0(s0)
    80003682:	00c80663          	beq	a6,a2,8000368e <core_bench_state+0x29e>
    80003686:	01384333          	xor	t1,a6,s3
    8000368a:	00640023          	sb	t1,0(s0)
    8000368e:	0405                	addi	s0,s0,1
    80003690:	00044383          	lbu	t2,0(s0)
    80003694:	00c38663          	beq	t2,a2,800036a0 <core_bench_state+0x2b0>
    80003698:	0133c733          	xor	a4,t2,s3
    8000369c:	00e40023          	sb	a4,0(s0)
    800036a0:	0405                	addi	s0,s0,1
    800036a2:	00044503          	lbu	a0,0(s0)
    800036a6:	00c50663          	beq	a0,a2,800036b2 <core_bench_state+0x2c2>
    800036aa:	01354a33          	xor	s4,a0,s3
    800036ae:	01440023          	sb	s4,0(s0)
    800036b2:	0405                	addi	s0,s0,1
    800036b4:	00044583          	lbu	a1,0(s0)
    800036b8:	00c58663          	beq	a1,a2,800036c4 <core_bench_state+0x2d4>
    800036bc:	0135c0b3          	xor	ra,a1,s3
    800036c0:	00140023          	sb	ra,0(s0)
    800036c4:	0405                	addi	s0,s0,1
    800036c6:	00044e03          	lbu	t3,0(s0)
    800036ca:	00ce0663          	beq	t3,a2,800036d6 <core_bench_state+0x2e6>
    800036ce:	013e46b3          	xor	a3,t3,s3
    800036d2:	00d40023          	sb	a3,0(s0)
    800036d6:	0405                	addi	s0,s0,1
    800036d8:	00044e83          	lbu	t4,0(s0)
    800036dc:	00ce8663          	beq	t4,a2,800036e8 <core_bench_state+0x2f8>
    800036e0:	013ec7b3          	xor	a5,t4,s3
    800036e4:	00f40023          	sb	a5,0(s0)
    800036e8:	0405                	addi	s0,s0,1
    800036ea:	09547863          	bgeu	s0,s5,8000377a <core_bench_state+0x38a>
    800036ee:	00044b03          	lbu	s6,0(s0)
    800036f2:	00cb0663          	beq	s6,a2,800036fe <core_bench_state+0x30e>
    800036f6:	013b48b3          	xor	a7,s6,s3
    800036fa:	01140023          	sb	a7,0(s0)
    800036fe:	00144283          	lbu	t0,1(s0)
    80003702:	00140f13          	addi	t5,s0,1
    80003706:	00c28663          	beq	t0,a2,80003712 <core_bench_state+0x322>
    8000370a:	0132cfb3          	xor	t6,t0,s3
    8000370e:	01f400a3          	sb	t6,1(s0)
    80003712:	001f4403          	lbu	s0,1(t5)
    80003716:	00c40663          	beq	s0,a2,80003722 <core_bench_state+0x332>
    8000371a:	01344bb3          	xor	s7,s0,s3
    8000371e:	017f00a3          	sb	s7,1(t5)
    80003722:	002f4803          	lbu	a6,2(t5)
    80003726:	00c80663          	beq	a6,a2,80003732 <core_bench_state+0x342>
    8000372a:	01384333          	xor	t1,a6,s3
    8000372e:	006f0123          	sb	t1,2(t5)
    80003732:	003f4383          	lbu	t2,3(t5)
    80003736:	00c38663          	beq	t2,a2,80003742 <core_bench_state+0x352>
    8000373a:	0133c733          	xor	a4,t2,s3
    8000373e:	00ef01a3          	sb	a4,3(t5)
    80003742:	004f4503          	lbu	a0,4(t5)
    80003746:	00c50663          	beq	a0,a2,80003752 <core_bench_state+0x362>
    8000374a:	01354a33          	xor	s4,a0,s3
    8000374e:	014f0223          	sb	s4,4(t5)
    80003752:	005f4583          	lbu	a1,5(t5)
    80003756:	00c58663          	beq	a1,a2,80003762 <core_bench_state+0x372>
    8000375a:	0135c0b3          	xor	ra,a1,s3
    8000375e:	001f02a3          	sb	ra,5(t5)
    80003762:	006f4e03          	lbu	t3,6(t5)
    80003766:	00ce0663          	beq	t3,a2,80003772 <core_bench_state+0x382>
    8000376a:	013e46b3          	xor	a3,t3,s3
    8000376e:	00df0323          	sb	a3,6(t5)
    80003772:	007f0413          	addi	s0,t5,7
    80003776:	f7546ce3          	bltu	s0,s5,800036ee <core_bench_state+0x2fe>
    8000377a:	01010a93          	addi	s5,sp,16
    8000377e:	89ca                	mv	s3,s2
    80003780:	000aa503          	lw	a0,0(s5)
    80003784:	85a6                	mv	a1,s1
    80003786:	0a91                	addi	s5,s5,4
    80003788:	c5dfc0ef          	jal	ra,800003e4 <crcu32>
    8000378c:	85aa                	mv	a1,a0
    8000378e:	0009a503          	lw	a0,0(s3)
    80003792:	0991                	addi	s3,s3,4
    80003794:	c51fc0ef          	jal	ra,800003e4 <crcu32>
    80003798:	84aa                	mv	s1,a0
    8000379a:	ff2a93e3          	bne	s5,s2,80003780 <core_bench_state+0x390>
    8000379e:	60ea                	ld	ra,152(sp)
    800037a0:	644a                	ld	s0,144(sp)
    800037a2:	64aa                	ld	s1,136(sp)
    800037a4:	690a                	ld	s2,128(sp)
    800037a6:	79e6                	ld	s3,120(sp)
    800037a8:	7a46                	ld	s4,112(sp)
    800037aa:	7aa6                	ld	s5,104(sp)
    800037ac:	7b06                	ld	s6,96(sp)
    800037ae:	6be6                	ld	s7,88(sp)
    800037b0:	610d                	addi	sp,sp,160
    800037b2:	8082                	ret
    800037b4:	00044603          	lbu	a2,0(s0)
    800037b8:	01364eb3          	xor	t4,a2,s3
    800037bc:	00a60463          	beq	a2,a0,800037c4 <core_bench_state+0x3d4>
    800037c0:	01d40023          	sb	t4,0(s0)
    800037c4:	9452                	add	s0,s0,s4
    800037c6:	ff5467e3          	bltu	s0,s5,800037b4 <core_bench_state+0x3c4>
    800037ca:	bf45                	j	8000377a <core_bench_state+0x38a>
    800037cc:	8fa2                	mv	t6,s0
    800037ce:	02c00e13          	li	t3,44
    800037d2:	000fce83          	lbu	t4,0(t6)
    800037d6:	016ecf33          	xor	t5,t4,s6
    800037da:	01ce8463          	beq	t4,t3,800037e2 <core_bench_state+0x3f2>
    800037de:	01ef8023          	sb	t5,0(t6)
    800037e2:	9fd2                	add	t6,t6,s4
    800037e4:	ff5fe7e3          	bltu	t6,s5,800037d2 <core_bench_state+0x3e2>
    800037e8:	b3f5                	j	800035d4 <core_bench_state+0x1e4>
    800037ea:	de0b99e3          	bnez	s7,800035dc <core_bench_state+0x1ec>
    800037ee:	b771                	j	8000377a <core_bench_state+0x38a>
    800037f0:	e422                	sd	s0,8(sp)
    800037f2:	b50d                	j	80003614 <core_bench_state+0x224>

Disassembly of section .text.startup:

00000000800037f4 <main>:
    800037f4:	7111                	addi	sp,sp,-256
    800037f6:	fd86                	sd	ra,248(sp)
    800037f8:	f9a2                	sd	s0,240(sp)
    800037fa:	f5a6                	sd	s1,232(sp)
    800037fc:	842e                	mv	s0,a1
    800037fe:	f1ca                	sd	s2,224(sp)
    80003800:	edce                	sd	s3,216(sp)
    80003802:	e9d2                	sd	s4,208(sp)
    80003804:	e5d6                	sd	s5,200(sp)
    80003806:	e1da                	sd	s6,192(sp)
    80003808:	fd5e                	sd	s7,184(sp)
    8000380a:	f962                	sd	s8,176(sp)
    8000380c:	f566                	sd	s9,168(sp)
    8000380e:	f16a                	sd	s10,160(sp)
    80003810:	ed6e                	sd	s11,152(sp)
    80003812:	ce2a                	sw	a0,28(sp)
    80003814:	6ae000ef          	jal	ra,80003ec2 <_ioe_init>
    80003818:	45a9                	li	a1,10
    8000381a:	00002517          	auipc	a0,0x2
    8000381e:	96e50513          	addi	a0,a0,-1682 # 80005188 <uptime+0x3a>
    80003822:	0fb010ef          	jal	ra,8000511c <printf_>
    80003826:	8622                	mv	a2,s0
    80003828:	086c                	addi	a1,sp,28
    8000382a:	08a10513          	addi	a0,sp,138
    8000382e:	c8eff0ef          	jal	ra,80002cbc <portable_init>
    80003832:	4505                	li	a0,1
    80003834:	fdcfc0ef          	jal	ra,80000010 <get_seed_32>
    80003838:	87aa                	mv	a5,a0
    8000383a:	4509                	li	a0,2
    8000383c:	02f11023          	sh	a5,32(sp)
    80003840:	fd0fc0ef          	jal	ra,80000010 <get_seed_32>
    80003844:	82aa                	mv	t0,a0
    80003846:	450d                	li	a0,3
    80003848:	02511123          	sh	t0,34(sp)
    8000384c:	fc4fc0ef          	jal	ra,80000010 <get_seed_32>
    80003850:	832a                	mv	t1,a0
    80003852:	4511                	li	a0,4
    80003854:	02611223          	sh	t1,36(sp)
    80003858:	fb8fc0ef          	jal	ra,80000010 <get_seed_32>
    8000385c:	83aa                	mv	t2,a0
    8000385e:	4515                	li	a0,5
    80003860:	c69e                	sw	t2,76(sp)
    80003862:	faefc0ef          	jal	ra,80000010 <get_seed_32>
    80003866:	0005079b          	sext.w	a5,a0
    8000386a:	e391                	bnez	a5,8000386e <main+0x7a>
    8000386c:	479d                	li	a5,7
    8000386e:	7082                	ld	ra,32(sp)
    80003870:	c8be                	sw	a5,80(sp)
    80003872:	01009693          	slli	a3,ra,0x10
    80003876:	e699                	bnez	a3,80003884 <main+0x90>
    80003878:	06600713          	li	a4,102
    8000387c:	d002                	sw	zero,32(sp)
    8000387e:	02e11223          	sh	a4,36(sp)
    80003882:	7082                	ld	ra,32(sp)
    80003884:	01009493          	slli	s1,ra,0x10
    80003888:	0104d513          	srli	a0,s1,0x10
    8000388c:	4585                	li	a1,1
    8000388e:	00b51b63          	bne	a0,a1,800038a4 <main+0xb0>
    80003892:	34153637          	lui	a2,0x34153
    80003896:	41560813          	addi	a6,a2,1045 # 34153415 <_start-0x4beacbeb>
    8000389a:	06600893          	li	a7,102
    8000389e:	d042                	sw	a6,32(sp)
    800038a0:	03111223          	sh	a7,36(sp)
    800038a4:	0027fe13          	andi	t3,a5,2
    800038a8:	0017f913          	andi	s2,a5,1
    800038ac:	01c039b3          	snez	s3,t3
    800038b0:	0047fa13          	andi	s4,a5,4
    800038b4:	01390ab3          	add	s5,s2,s3
    800038b8:	01403b33          	snez	s6,s4
    800038bc:	016a8bb3          	add	s7,s5,s6
    800038c0:	7d000c13          	li	s8,2000
    800038c4:	037c553b          	divuw	a0,s8,s7
    800038c8:	00002d17          	auipc	s10,0x2
    800038cc:	0c0d0d13          	addi	s10,s10,192 # 80005988 <static_memblk>
    800038d0:	f46a                	sd	s10,40(sp)
    800038d2:	08011423          	sh	zero,136(sp)
    800038d6:	8dca                	mv	s11,s2
    800038d8:	8772                	mv	a4,t3
    800038da:	c4aa                	sw	a0,72(sp)
    800038dc:	8caa                	mv	s9,a0
    800038de:	50091b63          	bnez	s2,80003df4 <main+0x600>
    800038e2:	4e0e1d63          	bnez	t3,80003ddc <main+0x5e8>
    800038e6:	4c0a1f63          	bnez	s4,80003dc4 <main+0x5d0>
    800038ea:	240d9c63          	bnez	s11,80003b42 <main+0x34e>
    800038ee:	26071563          	bnez	a4,80003b58 <main+0x364>
    800038f2:	0047f513          	andi	a0,a5,4
    800038f6:	c519                	beqz	a0,80003904 <main+0x110>
    800038f8:	6606                	ld	a2,64(sp)
    800038fa:	02011583          	lh	a1,32(sp)
    800038fe:	4526                	lw	a0,72(sp)
    80003900:	bcaff0ef          	jal	ra,80002cca <core_init_state>
    80003904:	45b6                	lw	a1,76(sp)
    80003906:	e1c1                	bnez	a1,80003986 <main+0x192>
    80003908:	4805                	li	a6,1
    8000390a:	c6c2                	sw	a6,76(sp)
    8000390c:	48b6                	lw	a7,76(sp)
    8000390e:	4d01                	li	s10,0
    80003910:	00289e1b          	slliw	t3,a7,0x2
    80003914:	011e093b          	addw	s2,t3,a7
    80003918:	0019199b          	slliw	s3,s2,0x1
    8000391c:	c6ce                	sw	s3,76(sp)
    8000391e:	b50ff0ef          	jal	ra,80002c6e <start_time>
    80003922:	4a36                	lw	s4,76(sp)
    80003924:	e102                	sd	zero,128(sp)
    80003926:	020a0c63          	beqz	s4,8000395e <main+0x16a>
    8000392a:	4585                	li	a1,1
    8000392c:	1008                	addi	a0,sp,32
    8000392e:	925fe0ef          	jal	ra,80002252 <core_bench_list>
    80003932:	08015583          	lhu	a1,128(sp)
    80003936:	857fc0ef          	jal	ra,8000018c <crcu16>
    8000393a:	8aaa                	mv	s5,a0
    8000393c:	55fd                	li	a1,-1
    8000393e:	1008                	addi	a0,sp,32
    80003940:	09511023          	sh	s5,128(sp)
    80003944:	90ffe0ef          	jal	ra,80002252 <core_bench_list>
    80003948:	08015583          	lhu	a1,128(sp)
    8000394c:	841fc0ef          	jal	ra,8000018c <crcu16>
    80003950:	08a11023          	sh	a0,128(sp)
    80003954:	220d0263          	beqz	s10,80003b78 <main+0x384>
    80003958:	2d05                	addiw	s10,s10,1
    8000395a:	fdaa18e3          	bne	s4,s10,8000392a <main+0x136>
    8000395e:	b2cff0ef          	jal	ra,80002c8a <stop_time>
    80003962:	b44ff0ef          	jal	ra,80002ca6 <get_time>
    80003966:	2501                	sext.w	a0,a0
    80003968:	b52ff0ef          	jal	ra,80002cba <time_in_secs>
    8000396c:	00050b9b          	sext.w	s7,a0
    80003970:	f80b8ee3          	beqz	s7,8000390c <main+0x118>
    80003974:	4c29                	li	s8,10
    80003976:	037c5cbb          	divuw	s9,s8,s7
    8000397a:	4d36                	lw	s10,76(sp)
    8000397c:	001c8d9b          	addiw	s11,s9,1
    80003980:	03ad8ebb          	mulw	t4,s11,s10
    80003984:	c6f6                	sw	t4,76(sp)
    80003986:	ae8ff0ef          	jal	ra,80002c6e <start_time>
    8000398a:	1008                	addi	a0,sp,32
    8000398c:	d64fe0ef          	jal	ra,80001ef0 <iterate>
    80003990:	afaff0ef          	jal	ra,80002c8a <stop_time>
    80003994:	b12ff0ef          	jal	ra,80002ca6 <get_time>
    80003998:	8f2a                	mv	t5,a0
    8000399a:	02011503          	lh	a0,32(sp)
    8000399e:	4581                	li	a1,0
    800039a0:	000f0a9b          	sext.w	s5,t5
    800039a4:	ef9fc0ef          	jal	ra,8000089c <crc16>
    800039a8:	85aa                	mv	a1,a0
    800039aa:	02211503          	lh	a0,34(sp)
    800039ae:	eeffc0ef          	jal	ra,8000089c <crc16>
    800039b2:	85aa                	mv	a1,a0
    800039b4:	02411503          	lh	a0,36(sp)
    800039b8:	ee5fc0ef          	jal	ra,8000089c <crc16>
    800039bc:	85aa                	mv	a1,a0
    800039be:	04811503          	lh	a0,72(sp)
    800039c2:	edbfc0ef          	jal	ra,8000089c <crc16>
    800039c6:	6fa1                	lui	t6,0x8
    800039c8:	0005049b          	sext.w	s1,a0
    800039cc:	b05f8413          	addi	s0,t6,-1275 # 7b05 <_start-0x7fff84fb>
    800039d0:	46848863          	beq	s1,s0,80003e40 <main+0x64c>
    800039d4:	1a946963          	bltu	s0,s1,80003b86 <main+0x392>
    800039d8:	6889                	lui	a7,0x2
    800039da:	8f288e13          	addi	t3,a7,-1806 # 18f2 <_start-0x7fffe70e>
    800039de:	49c48263          	beq	s1,t3,80003e62 <main+0x66e>
    800039e2:	6c15                	lui	s8,0x5
    800039e4:	eafc0c93          	addi	s9,s8,-337 # 4eaf <_start-0x7fffb151>
    800039e8:	4d949563          	bne	s1,s9,80003eb2 <main+0x6be>
    800039ec:	00002517          	auipc	a0,0x2
    800039f0:	82450513          	addi	a0,a0,-2012 # 80005210 <uptime+0xc2>
    800039f4:	608c0b93          	addi	s7,s8,1544
    800039f8:	6d39                	lui	s10,0xe
    800039fa:	6d9d                	lui	s11,0x7
    800039fc:	720010ef          	jal	ra,8000511c <printf_>
    80003a00:	5a4d0913          	addi	s2,s10,1444 # e5a4 <_start-0x7fff1a5c>
    80003a04:	e85e                	sd	s7,16(sp)
    80003a06:	a79d8b13          	addi	s6,s11,-1415 # 6a79 <_start-0x7fff9587>
    80003a0a:	00002417          	auipc	s0,0x2
    80003a0e:	f6e40413          	addi	s0,s0,-146 # 80005978 <default_num_contexts>
    80003a12:	00042e83          	lw	t4,0(s0)
    80003a16:	4d01                	li	s10,0
    80003a18:	4c81                	li	s9,0
    80003a1a:	4d81                	li	s11,0
    80003a1c:	180e8f63          	beqz	t4,80003bba <main+0x3c6>
    80003a20:	000b8a1b          	sext.w	s4,s7
    80003a24:	000b0c1b          	sext.w	s8,s6
    80003a28:	00090b9b          	sext.w	s7,s2
    80003a2c:	a8b1                	j	80003a88 <main+0x294>
    80003a2e:	ff655603          	lhu	a2,-10(a0)
    80003a32:	11760563          	beq	a2,s7,80003b3c <main+0x348>
    80003a36:	85ee                	mv	a1,s11
    80003a38:	e42a                	sd	a0,8(sp)
    80003a3a:	86ca                	mv	a3,s2
    80003a3c:	00002517          	auipc	a0,0x2
    80003a40:	8d450513          	addi	a0,a0,-1836 # 80005310 <uptime+0x1c2>
    80003a44:	6d8010ef          	jal	ra,8000511c <printf_>
    80003a48:	6da2                	ld	s11,8(sp)
    80003a4a:	ff8dd583          	lhu	a1,-8(s11)
    80003a4e:	0015881b          	addiw	a6,a1,1
    80003a52:	03081893          	slli	a7,a6,0x30
    80003a56:	0308de13          	srli	t3,a7,0x30
    80003a5a:	ffcd9c23          	sh	t3,-8(s11)
    80003a5e:	2c85                	addiw	s9,s9,1
    80003a60:	00042083          	lw	ra,0(s0)
    80003a64:	01cd0d3b          	addw	s10,s10,t3
    80003a68:	030c9e93          	slli	t4,s9,0x30
    80003a6c:	030d1f13          	slli	t5,s10,0x30
    80003a70:	030edc93          	srli	s9,t4,0x30
    80003a74:	010d1f9b          	slliw	t6,s10,0x10
    80003a78:	030f5f13          	srli	t5,t5,0x30
    80003a7c:	410fdd1b          	sraiw	s10,t6,0x10
    80003a80:	000c8d9b          	sext.w	s11,s9
    80003a84:	121cfc63          	bgeu	s9,ra,80003bbc <main+0x3c8>
    80003a88:	003d9993          	slli	s3,s11,0x3
    80003a8c:	41b98fb3          	sub	t6,s3,s11
    80003a90:	004f9293          	slli	t0,t6,0x4
    80003a94:	08028313          	addi	t1,t0,128
    80003a98:	01010393          	addi	t2,sp,16
    80003a9c:	00730733          	add	a4,t1,t2
    80003aa0:	fc072683          	lw	a3,-64(a4)
    80003aa4:	fe071c23          	sh	zero,-8(a4)
    80003aa8:	0016f613          	andi	a2,a3,1
    80003aac:	c60d                	beqz	a2,80003ad6 <main+0x2e2>
    80003aae:	ff275603          	lhu	a2,-14(a4)
    80003ab2:	e43a                	sd	a4,8(sp)
    80003ab4:	03860163          	beq	a2,s8,80003ad6 <main+0x2e2>
    80003ab8:	85ee                	mv	a1,s11
    80003aba:	86da                	mv	a3,s6
    80003abc:	00001517          	auipc	a0,0x1
    80003ac0:	7ec50513          	addi	a0,a0,2028 # 800052a8 <uptime+0x15a>
    80003ac4:	658010ef          	jal	ra,8000511c <printf_>
    80003ac8:	67a2                	ld	a5,8(sp)
    80003aca:	ff87d503          	lhu	a0,-8(a5)
    80003ace:	0015059b          	addiw	a1,a0,1
    80003ad2:	feb79c23          	sh	a1,-8(a5)
    80003ad6:	41b980b3          	sub	ra,s3,s11
    80003ada:	00409813          	slli	a6,ra,0x4
    80003ade:	08080893          	addi	a7,a6,128
    80003ae2:	01010e13          	addi	t3,sp,16
    80003ae6:	01c88eb3          	add	t4,a7,t3
    80003aea:	fc0ea303          	lw	t1,-64(t4)
    80003aee:	00237f13          	andi	t5,t1,2
    80003af2:	020f0863          	beqz	t5,80003b22 <main+0x32e>
    80003af6:	ff4ed603          	lhu	a2,-12(t4)
    80003afa:	e476                	sd	t4,8(sp)
    80003afc:	03460363          	beq	a2,s4,80003b22 <main+0x32e>
    80003b00:	66c2                	ld	a3,16(sp)
    80003b02:	85ee                	mv	a1,s11
    80003b04:	00001517          	auipc	a0,0x1
    80003b08:	7d450513          	addi	a0,a0,2004 # 800052d8 <uptime+0x18a>
    80003b0c:	610010ef          	jal	ra,8000511c <printf_>
    80003b10:	6fa2                	ld	t6,8(sp)
    80003b12:	ff8fd283          	lhu	t0,-8(t6)
    80003b16:	fc0fa303          	lw	t1,-64(t6)
    80003b1a:	0012839b          	addiw	t2,t0,1
    80003b1e:	fe7f9c23          	sh	t2,-8(t6)
    80003b22:	41b989b3          	sub	s3,s3,s11
    80003b26:	00499713          	slli	a4,s3,0x4
    80003b2a:	08070613          	addi	a2,a4,128
    80003b2e:	081c                	addi	a5,sp,16
    80003b30:	00437693          	andi	a3,t1,4
    80003b34:	00f60533          	add	a0,a2,a5
    80003b38:	ee069be3          	bnez	a3,80003a2e <main+0x23a>
    80003b3c:	ff855e03          	lhu	t3,-8(a0)
    80003b40:	bf39                	j	80003a5e <main+0x26a>
    80003b42:	02011603          	lh	a2,32(sp)
    80003b46:	75c2                	ld	a1,48(sp)
    80003b48:	b6bfe0ef          	jal	ra,800026b2 <core_list_init>
    80003b4c:	47c6                	lw	a5,80(sp)
    80003b4e:	ecaa                	sd	a0,88(sp)
    80003b50:	0027f713          	andi	a4,a5,2
    80003b54:	d8070fe3          	beqz	a4,800038f2 <main+0xfe>
    80003b58:	02211083          	lh	ra,34(sp)
    80003b5c:	02011783          	lh	a5,32(sp)
    80003b60:	75e2                	ld	a1,56(sp)
    80003b62:	0100949b          	slliw	s1,ra,0x10
    80003b66:	4526                	lw	a0,72(sp)
    80003b68:	00f4e633          	or	a2,s1,a5
    80003b6c:	1094                	addi	a3,sp,96
    80003b6e:	2601                	sext.w	a2,a2
    80003b70:	8edfd0ef          	jal	ra,8000145c <core_init_matrix>
    80003b74:	47c6                	lw	a5,80(sp)
    80003b76:	bbb5                	j	800038f2 <main+0xfe>
    80003b78:	08a11123          	sh	a0,130(sp)
    80003b7c:	4b05                	li	s6,1
    80003b7e:	df6a00e3          	beq	s4,s6,8000395e <main+0x16a>
    80003b82:	4d05                	li	s10,1
    80003b84:	b35d                	j	8000392a <main+0x136>
    80003b86:	6925                	lui	s2,0x9
    80003b88:	a0290693          	addi	a3,s2,-1534 # 8a02 <_start-0x7fff75fe>
    80003b8c:	2ed48d63          	beq	s1,a3,80003e86 <main+0x692>
    80003b90:	60bd                	lui	ra,0xf
    80003b92:	9f508513          	addi	a0,ra,-1547 # e9f5 <_start-0x7fff160b>
    80003b96:	30a49e63          	bne	s1,a0,80003eb2 <main+0x6be>
    80003b9a:	00001517          	auipc	a0,0x1
    80003b9e:	6ae50513          	addi	a0,a0,1710 # 80005248 <uptime+0xfa>
    80003ba2:	57a010ef          	jal	ra,8000511c <printf_>
    80003ba6:	6589                	lui	a1,0x2
    80003ba8:	fd758b93          	addi	s7,a1,-41 # 1fd7 <_start-0x7fffe029>
    80003bac:	6839                	lui	a6,0xe
    80003bae:	e85e                	sd	s7,16(sp)
    80003bb0:	e3a90913          	addi	s2,s2,-454
    80003bb4:	71480b13          	addi	s6,a6,1812 # e714 <_start-0x7fff18ec>
    80003bb8:	bd89                	j	80003a0a <main+0x216>
    80003bba:	4f01                	li	t5,0
    80003bbc:	e47a                	sd	t5,8(sp)
    80003bbe:	f3bfc0ef          	jal	ra,80000af8 <check_data_types>
    80003bc2:	6b22                	ld	s6,8(sp)
    80003bc4:	45a6                	lw	a1,72(sp)
    80003bc6:	01650c3b          	addw	s8,a0,s6
    80003bca:	00001517          	auipc	a0,0x1
    80003bce:	77650513          	addi	a0,a0,1910 # 80005340 <uptime+0x1f2>
    80003bd2:	54a010ef          	jal	ra,8000511c <printf_>
    80003bd6:	8556                	mv	a0,s5
    80003bd8:	8e2ff0ef          	jal	ra,80002cba <time_in_secs>
    80003bdc:	0005059b          	sext.w	a1,a0
    80003be0:	00001517          	auipc	a0,0x1
    80003be4:	77850513          	addi	a0,a0,1912 # 80005358 <uptime+0x20a>
    80003be8:	534010ef          	jal	ra,8000511c <printf_>
    80003bec:	42b6                	lw	t0,76(sp)
    80003bee:	00042303          	lw	t1,0(s0)
    80003bf2:	00001517          	auipc	a0,0x1
    80003bf6:	77e50513          	addi	a0,a0,1918 # 80005370 <uptime+0x222>
    80003bfa:	010c1a1b          	slliw	s4,s8,0x10
    80003bfe:	025305bb          	mulw	a1,t1,t0
    80003c02:	410a5b9b          	sraiw	s7,s4,0x10
    80003c06:	516010ef          	jal	ra,8000511c <printf_>
    80003c0a:	00001597          	auipc	a1,0x1
    80003c0e:	77e58593          	addi	a1,a1,1918 # 80005388 <uptime+0x23a>
    80003c12:	00001517          	auipc	a0,0x1
    80003c16:	78650513          	addi	a0,a0,1926 # 80005398 <uptime+0x24a>
    80003c1a:	502010ef          	jal	ra,8000511c <printf_>
    80003c1e:	85a6                	mv	a1,s1
    80003c20:	00001517          	auipc	a0,0x1
    80003c24:	79050513          	addi	a0,a0,1936 # 800053b0 <uptime+0x262>
    80003c28:	4f4010ef          	jal	ra,8000511c <printf_>
    80003c2c:	46c6                	lw	a3,80(sp)
    80003c2e:	0016f493          	andi	s1,a3,1
    80003c32:	c8a1                	beqz	s1,80003c82 <main+0x48e>
    80003c34:	00042383          	lw	t2,0(s0)
    80003c38:	04038563          	beqz	t2,80003c82 <main+0x48e>
    80003c3c:	4c81                	li	s9,0
    80003c3e:	4581                	li	a1,0
    80003c40:	00001997          	auipc	s3,0x1
    80003c44:	79098993          	addi	s3,s3,1936 # 800053d0 <uptime+0x282>
    80003c48:	00359693          	slli	a3,a1,0x3
    80003c4c:	40b68733          	sub	a4,a3,a1
    80003c50:	00471613          	slli	a2,a4,0x4
    80003c54:	08060793          	addi	a5,a2,128
    80003c58:	0808                	addi	a0,sp,16
    80003c5a:	00a78db3          	add	s11,a5,a0
    80003c5e:	ff2dd603          	lhu	a2,-14(s11)
    80003c62:	854e                	mv	a0,s3
    80003c64:	4b8010ef          	jal	ra,8000511c <printf_>
    80003c68:	001c859b          	addiw	a1,s9,1
    80003c6c:	00042803          	lw	a6,0(s0)
    80003c70:	03059893          	slli	a7,a1,0x30
    80003c74:	0308dc93          	srli	s9,a7,0x30
    80003c78:	000c859b          	sext.w	a1,s9
    80003c7c:	fd0ce6e3          	bltu	s9,a6,80003c48 <main+0x454>
    80003c80:	46c6                	lw	a3,80(sp)
    80003c82:	0026fe13          	andi	t3,a3,2
    80003c86:	040e0a63          	beqz	t3,80003cda <main+0x4e6>
    80003c8a:	00042083          	lw	ra,0(s0)
    80003c8e:	20008d63          	beqz	ra,80003ea8 <main+0x6b4>
    80003c92:	4981                	li	s3,0
    80003c94:	4581                	li	a1,0
    80003c96:	00001917          	auipc	s2,0x1
    80003c9a:	75a90913          	addi	s2,s2,1882 # 800053f0 <uptime+0x2a2>
    80003c9e:	00359e93          	slli	t4,a1,0x3
    80003ca2:	40be8f33          	sub	t5,t4,a1
    80003ca6:	004f1f93          	slli	t6,t5,0x4
    80003caa:	080f8b13          	addi	s6,t6,128
    80003cae:	01010c13          	addi	s8,sp,16
    80003cb2:	018b0a33          	add	s4,s6,s8
    80003cb6:	ff4a5603          	lhu	a2,-12(s4)
    80003cba:	854a                	mv	a0,s2
    80003cbc:	460010ef          	jal	ra,8000511c <printf_>
    80003cc0:	0019831b          	addiw	t1,s3,1
    80003cc4:	00042283          	lw	t0,0(s0)
    80003cc8:	03031493          	slli	s1,t1,0x30
    80003ccc:	0304d993          	srli	s3,s1,0x30
    80003cd0:	0009859b          	sext.w	a1,s3
    80003cd4:	fc59e5e3          	bltu	s3,t0,80003c9e <main+0x4aa>
    80003cd8:	46c6                	lw	a3,80(sp)
    80003cda:	0046f393          	andi	t2,a3,4
    80003cde:	4018                	lw	a4,0(s0)
    80003ce0:	04038663          	beqz	t2,80003d2c <main+0x538>
    80003ce4:	4901                	li	s2,0
    80003ce6:	4581                	li	a1,0
    80003ce8:	00001d97          	auipc	s11,0x1
    80003cec:	740d8d93          	addi	s11,s11,1856 # 80005428 <uptime+0x2da>
    80003cf0:	c749                	beqz	a4,80003d7a <main+0x586>
    80003cf2:	00359613          	slli	a2,a1,0x3
    80003cf6:	40b607b3          	sub	a5,a2,a1
    80003cfa:	00479513          	slli	a0,a5,0x4
    80003cfe:	08050813          	addi	a6,a0,128
    80003d02:	01010893          	addi	a7,sp,16
    80003d06:	01180cb3          	add	s9,a6,a7
    80003d0a:	ff6cd603          	lhu	a2,-10(s9)
    80003d0e:	856e                	mv	a0,s11
    80003d10:	40c010ef          	jal	ra,8000511c <printf_>
    80003d14:	0019059b          	addiw	a1,s2,1
    80003d18:	00042e03          	lw	t3,0(s0)
    80003d1c:	03059d13          	slli	s10,a1,0x30
    80003d20:	030d5913          	srli	s2,s10,0x30
    80003d24:	0009059b          	sext.w	a1,s2
    80003d28:	fdc965e3          	bltu	s2,t3,80003cf2 <main+0x4fe>
    80003d2c:	00042083          	lw	ra,0(s0)
    80003d30:	4d81                	li	s11,0
    80003d32:	4581                	li	a1,0
    80003d34:	00001b17          	auipc	s6,0x1
    80003d38:	714b0b13          	addi	s6,s6,1812 # 80005448 <uptime+0x2fa>
    80003d3c:	02008f63          	beqz	ra,80003d7a <main+0x586>
    80003d40:	00359e93          	slli	t4,a1,0x3
    80003d44:	40be8f33          	sub	t5,t4,a1
    80003d48:	004f1f93          	slli	t6,t5,0x4
    80003d4c:	080f8c13          	addi	s8,t6,128
    80003d50:	01010a13          	addi	s4,sp,16
    80003d54:	014c02b3          	add	t0,s8,s4
    80003d58:	ff02d603          	lhu	a2,-16(t0)
    80003d5c:	855a                	mv	a0,s6
    80003d5e:	001d849b          	addiw	s1,s11,1
    80003d62:	3ba010ef          	jal	ra,8000511c <printf_>
    80003d66:	00042303          	lw	t1,0(s0)
    80003d6a:	03049993          	slli	s3,s1,0x30
    80003d6e:	0309dd93          	srli	s11,s3,0x30
    80003d72:	000d859b          	sext.w	a1,s11
    80003d76:	fc6de5e3          	bltu	s11,t1,80003d40 <main+0x54c>
    80003d7a:	85d6                	mv	a1,s5
    80003d7c:	00001517          	auipc	a0,0x1
    80003d80:	69450513          	addi	a0,a0,1684 # 80005410 <uptime+0x2c2>
    80003d84:	398010ef          	jal	ra,8000511c <printf_>
    80003d88:	080b8163          	beqz	s7,80003e0a <main+0x616>
    80003d8c:	07705863          	blez	s7,80003dfc <main+0x608>
    80003d90:	00001517          	auipc	a0,0x1
    80003d94:	73050513          	addi	a0,a0,1840 # 800054c0 <uptime+0x372>
    80003d98:	384010ef          	jal	ra,8000511c <printf_>
    80003d9c:	08a10513          	addi	a0,sp,138
    80003da0:	f25fe0ef          	jal	ra,80002cc4 <portable_fini>
    80003da4:	70ee                	ld	ra,248(sp)
    80003da6:	744e                	ld	s0,240(sp)
    80003da8:	74ae                	ld	s1,232(sp)
    80003daa:	790e                	ld	s2,224(sp)
    80003dac:	69ee                	ld	s3,216(sp)
    80003dae:	6a4e                	ld	s4,208(sp)
    80003db0:	6aae                	ld	s5,200(sp)
    80003db2:	6b0e                	ld	s6,192(sp)
    80003db4:	7bea                	ld	s7,184(sp)
    80003db6:	7c4a                	ld	s8,176(sp)
    80003db8:	7caa                	ld	s9,168(sp)
    80003dba:	7d0a                	ld	s10,160(sp)
    80003dbc:	6dea                	ld	s11,152(sp)
    80003dbe:	4501                	li	a0,0
    80003dc0:	6111                	addi	sp,sp,256
    80003dc2:	8082                	ret
    80003dc4:	039a82bb          	mulw	t0,s5,s9
    80003dc8:	02029313          	slli	t1,t0,0x20
    80003dcc:	02035393          	srli	t2,t1,0x20
    80003dd0:	007d06b3          	add	a3,s10,t2
    80003dd4:	e0b6                	sd	a3,64(sp)
    80003dd6:	b00d8ce3          	beqz	s11,800038ee <main+0xfa>
    80003dda:	b3a5                	j	80003b42 <main+0x34e>
    80003ddc:	03990ebb          	mulw	t4,s2,s9
    80003de0:	020e9f13          	slli	t5,t4,0x20
    80003de4:	020f5f93          	srli	t6,t5,0x20
    80003de8:	01fd0433          	add	s0,s10,t6
    80003dec:	fc22                	sd	s0,56(sp)
    80003dee:	ae0a0ee3          	beqz	s4,800038ea <main+0xf6>
    80003df2:	bfc9                	j	80003dc4 <main+0x5d0>
    80003df4:	f86a                	sd	s10,48(sp)
    80003df6:	ae0e08e3          	beqz	t3,800038e6 <main+0xf2>
    80003dfa:	b7cd                	j	80003ddc <main+0x5e8>
    80003dfc:	00001517          	auipc	a0,0x1
    80003e00:	6dc50513          	addi	a0,a0,1756 # 800054d8 <uptime+0x38a>
    80003e04:	318010ef          	jal	ra,8000511c <printf_>
    80003e08:	bf51                	j	80003d9c <main+0x5a8>
    80003e0a:	00001517          	auipc	a0,0x1
    80003e0e:	65e50513          	addi	a0,a0,1630 # 80005468 <uptime+0x31a>
    80003e12:	30a010ef          	jal	ra,8000511c <printf_>
    80003e16:	00042b83          	lw	s7,0(s0)
    80003e1a:	00989437          	lui	s0,0x989
    80003e1e:	6804069b          	addiw	a3,s0,1664 # 989680 <_start-0x7f676980>
    80003e22:	03768cbb          	mulw	s9,a3,s7
    80003e26:	8556                	mv	a0,s5
    80003e28:	e93fe0ef          	jal	ra,80002cba <time_in_secs>
    80003e2c:	8aaa                	mv	s5,a0
    80003e2e:	00001517          	auipc	a0,0x1
    80003e32:	67250513          	addi	a0,a0,1650 # 800054a0 <uptime+0x352>
    80003e36:	035cd5bb          	divuw	a1,s9,s5
    80003e3a:	2e2010ef          	jal	ra,8000511c <printf_>
    80003e3e:	bfb9                	j	80003d9c <main+0x5a8>
    80003e40:	00001517          	auipc	a0,0x1
    80003e44:	3a050513          	addi	a0,a0,928 # 800051e0 <uptime+0x92>
    80003e48:	2d4010ef          	jal	ra,8000511c <printf_>
    80003e4c:	6285                	lui	t0,0x1
    80003e4e:	19928b93          	addi	s7,t0,409 # 1199 <_start-0x7fffee67>
    80003e52:	6311                	lui	t1,0x4
    80003e54:	638d                	lui	t2,0x3
    80003e56:	e85e                	sd	s7,16(sp)
    80003e58:	9bf30913          	addi	s2,t1,-1601 # 39bf <_start-0x7fffc641>
    80003e5c:	34038b13          	addi	s6,t2,832 # 3340 <_start-0x7fffccc0>
    80003e60:	b66d                	j	80003a0a <main+0x216>
    80003e62:	00001517          	auipc	a0,0x1
    80003e66:	41650513          	addi	a0,a0,1046 # 80005278 <uptime+0x12a>
    80003e6a:	69a5                	lui	s3,0x9
    80003e6c:	74700a13          	li	s4,1863
    80003e70:	6b39                	lui	s6,0xe
    80003e72:	2aa010ef          	jal	ra,8000511c <printf_>
    80003e76:	d8498913          	addi	s2,s3,-636 # 8d84 <_start-0x7fff727c>
    80003e7a:	e852                	sd	s4,16(sp)
    80003e7c:	74700b93          	li	s7,1863
    80003e80:	3c1b0b13          	addi	s6,s6,961 # e3c1 <_start-0x7fff1c3f>
    80003e84:	b659                	j	80003a0a <main+0x216>
    80003e86:	00001517          	auipc	a0,0x1
    80003e8a:	32a50513          	addi	a0,a0,810 # 800051b0 <uptime+0x62>
    80003e8e:	28e010ef          	jal	ra,8000511c <printf_>
    80003e92:	6731                	lui	a4,0xc
    80003e94:	e5270b93          	addi	s7,a4,-430 # be52 <_start-0x7fff41ae>
    80003e98:	6619                	lui	a2,0x6
    80003e9a:	67b5                	lui	a5,0xd
    80003e9c:	e85e                	sd	s7,16(sp)
    80003e9e:	e4760913          	addi	s2,a2,-441 # 5e47 <_start-0x7fffa1b9>
    80003ea2:	4b078b13          	addi	s6,a5,1200 # d4b0 <_start-0x7fff2b50>
    80003ea6:	b695                	j	80003a0a <main+0x216>
    80003ea8:	0046fd13          	andi	s10,a3,4
    80003eac:	e80d00e3          	beqz	s10,80003d2c <main+0x538>
    80003eb0:	b5e9                	j	80003d7a <main+0x586>
    80003eb2:	6941                	lui	s2,0x10
    80003eb4:	fff90f13          	addi	t5,s2,-1 # ffff <_start-0x7fff0001>
    80003eb8:	00002417          	auipc	s0,0x2
    80003ebc:	ac040413          	addi	s0,s0,-1344 # 80005978 <default_num_contexts>
    80003ec0:	b9f5                	j	80003bbc <main+0x3c8>

Disassembly of section .text._ioe_init:

0000000080003ec2 <_ioe_init>:
    80003ec2:	1141                	addi	sp,sp,-16
    80003ec4:	e406                	sd	ra,8(sp)
    80003ec6:	190000ef          	jal	ra,80004056 <__am_vga_init>
    80003eca:	10c000ef          	jal	ra,80003fd6 <__am_timer_init>
    80003ece:	18a000ef          	jal	ra,80004058 <__am_audio_init>
    80003ed2:	60a2                	ld	ra,8(sp)
    80003ed4:	4501                	li	a0,0
    80003ed6:	0141                	addi	sp,sp,16
    80003ed8:	8082                	ret

Disassembly of section .text._io_read:

0000000080003eda <_io_read>:
    80003eda:	67ad                	lui	a5,0xb
    80003edc:	872a                	mv	a4,a0
    80003ede:	c0478813          	addi	a6,a5,-1020 # ac04 <_start-0x7fff53fc>
    80003ee2:	852e                	mv	a0,a1
    80003ee4:	85b2                	mv	a1,a2
    80003ee6:	8636                	mv	a2,a3
    80003ee8:	03070263          	beq	a4,a6,80003f0c <_io_read+0x32>
    80003eec:	00e86b63          	bltu	a6,a4,80003f02 <_io_read+0x28>
    80003ef0:	c0278693          	addi	a3,a5,-1022
    80003ef4:	00d70f63          	beq	a4,a3,80003f12 <_io_read+0x38>
    80003ef8:	c0378793          	addi	a5,a5,-1021
    80003efc:	00f71963          	bne	a4,a5,80003f0e <_io_read+0x34>
    80003f00:	a811                	j	80003f14 <__am_timer_read>
    80003f02:	c0778793          	addi	a5,a5,-1017
    80003f06:	00f71463          	bne	a4,a5,80003f0e <_io_read+0x34>
    80003f0a:	aa81                	j	8000405a <__am_audio_read>
    80003f0c:	aa19                	j	80004022 <__am_video_read>
    80003f0e:	4501                	li	a0,0
    80003f10:	8082                	ret
    80003f12:	a0cd                	j	80003ff4 <__am_input_read>

Disassembly of section .text.__am_timer_read:

0000000080003f14 <__am_timer_read>:
    80003f14:	4785                	li	a5,1
    80003f16:	06f50b63          	beq	a0,a5,80003f8c <__am_timer_read+0x78>
    80003f1a:	4789                	li	a5,2
    80003f1c:	06f51663          	bne	a0,a5,80003f88 <__am_timer_read+0x74>
    80003f20:	5789                	li	a5,-30
    80003f22:	00f58023          	sb	a5,0(a1)
    80003f26:	479d                	li	a5,7
    80003f28:	00058a23          	sb	zero,20(a1)
    80003f2c:	00058aa3          	sb	zero,21(a1)
    80003f30:	00058b23          	sb	zero,22(a1)
    80003f34:	00058ba3          	sb	zero,23(a1)
    80003f38:	00058823          	sb	zero,16(a1)
    80003f3c:	000588a3          	sb	zero,17(a1)
    80003f40:	00058923          	sb	zero,18(a1)
    80003f44:	000589a3          	sb	zero,19(a1)
    80003f48:	00058623          	sb	zero,12(a1)
    80003f4c:	000586a3          	sb	zero,13(a1)
    80003f50:	00058723          	sb	zero,14(a1)
    80003f54:	000587a3          	sb	zero,15(a1)
    80003f58:	00058423          	sb	zero,8(a1)
    80003f5c:	000584a3          	sb	zero,9(a1)
    80003f60:	00058523          	sb	zero,10(a1)
    80003f64:	000585a3          	sb	zero,11(a1)
    80003f68:	00058223          	sb	zero,4(a1)
    80003f6c:	000582a3          	sb	zero,5(a1)
    80003f70:	00058323          	sb	zero,6(a1)
    80003f74:	000583a3          	sb	zero,7(a1)
    80003f78:	00f580a3          	sb	a5,1(a1)
    80003f7c:	00058123          	sb	zero,2(a1)
    80003f80:	000581a3          	sb	zero,3(a1)
    80003f84:	4561                	li	a0,24
    80003f86:	8082                	ret
    80003f88:	4501                	li	a0,0
    80003f8a:	8082                	ret
    80003f8c:	3800c7b7          	lui	a5,0x3800c
    80003f90:	ff87b783          	ld	a5,-8(a5) # 3800bff8 <_start-0x47ff4008>
    80003f94:	3e800713          	li	a4,1000
    80003f98:	00058023          	sb	zero,0(a1)
    80003f9c:	02e7d7b3          	divu	a5,a5,a4
    80003fa0:	00002717          	auipc	a4,0x2
    80003fa4:	1d873703          	ld	a4,472(a4) # 80006178 <boot_time>
    80003fa8:	000580a3          	sb	zero,1(a1)
    80003fac:	00058123          	sb	zero,2(a1)
    80003fb0:	000581a3          	sb	zero,3(a1)
    80003fb4:	4521                	li	a0,8
    80003fb6:	9f99                	subw	a5,a5,a4
    80003fb8:	0087d61b          	srliw	a2,a5,0x8
    80003fbc:	0107d69b          	srliw	a3,a5,0x10
    80003fc0:	0187d71b          	srliw	a4,a5,0x18
    80003fc4:	00f58223          	sb	a5,4(a1)
    80003fc8:	00c582a3          	sb	a2,5(a1)
    80003fcc:	00d58323          	sb	a3,6(a1)
    80003fd0:	00e583a3          	sb	a4,7(a1)
    80003fd4:	8082                	ret

Disassembly of section .text.__am_timer_init:

0000000080003fd6 <__am_timer_init>:
    80003fd6:	3800c7b7          	lui	a5,0x3800c
    80003fda:	ff87b783          	ld	a5,-8(a5) # 3800bff8 <_start-0x47ff4008>
    80003fde:	3e800713          	li	a4,1000
    80003fe2:	02e7d7b3          	divu	a5,a5,a4
    80003fe6:	1782                	slli	a5,a5,0x20
    80003fe8:	9381                	srli	a5,a5,0x20
    80003fea:	00002717          	auipc	a4,0x2
    80003fee:	18f73723          	sd	a5,398(a4) # 80006178 <boot_time>
    80003ff2:	8082                	ret

Disassembly of section .text.__am_input_read:

0000000080003ff4 <__am_input_read>:
    80003ff4:	4785                	li	a5,1
    80003ff6:	00f50463          	beq	a0,a5,80003ffe <__am_input_read+0xa>
    80003ffa:	4501                	li	a0,0
    80003ffc:	8082                	ret
    80003ffe:	00058023          	sb	zero,0(a1)
    80004002:	000580a3          	sb	zero,1(a1)
    80004006:	00058123          	sb	zero,2(a1)
    8000400a:	000581a3          	sb	zero,3(a1)
    8000400e:	00058223          	sb	zero,4(a1)
    80004012:	000582a3          	sb	zero,5(a1)
    80004016:	00058323          	sb	zero,6(a1)
    8000401a:	000583a3          	sb	zero,7(a1)
    8000401e:	4521                	li	a0,8
    80004020:	8082                	ret

Disassembly of section .text.__am_video_read:

0000000080004022 <__am_video_read>:
    80004022:	4785                	li	a5,1
    80004024:	00f50463          	beq	a0,a5,8000402c <__am_video_read+0xa>
    80004028:	4501                	li	a0,0
    8000402a:	8082                	ret
    8000402c:	04000793          	li	a5,64
    80004030:	00f58023          	sb	a5,0(a1)
    80004034:	57c1                	li	a5,-16
    80004036:	00a580a3          	sb	a0,1(a1)
    8000403a:	00058123          	sb	zero,2(a1)
    8000403e:	000581a3          	sb	zero,3(a1)
    80004042:	00f58223          	sb	a5,4(a1)
    80004046:	000582a3          	sb	zero,5(a1)
    8000404a:	00058323          	sb	zero,6(a1)
    8000404e:	000583a3          	sb	zero,7(a1)
    80004052:	4521                	li	a0,8
    80004054:	8082                	ret

Disassembly of section .text.__am_vga_init:

0000000080004056 <__am_vga_init>:
    80004056:	8082                	ret

Disassembly of section .text.__am_audio_init:

0000000080004058 <__am_audio_init>:
    80004058:	8082                	ret

Disassembly of section .text.__am_audio_read:

000000008000405a <__am_audio_read>:
    8000405a:	4501                	li	a0,0
    8000405c:	8082                	ret

Disassembly of section .text._putc:

000000008000405e <_putc>:
    8000405e:	a081                	j	8000409e <__am_uartlite_putchar>

Disassembly of section .text._halt:

0000000080004060 <_halt>:
    80004060:	1141                	addi	sp,sp,-16
    80004062:	e406                	sd	ra,8(sp)
    80004064:	85aa                	mv	a1,a0
    80004066:	852a                	mv	a0,a0
    80004068:	0005006b          	.word	0x0005006b
    8000406c:	00001517          	auipc	a0,0x1
    80004070:	64c50513          	addi	a0,a0,1612 # 800056b8 <errpat+0x20>
    80004074:	0a8010ef          	jal	ra,8000511c <printf_>
    80004078:	a001                	j	80004078 <_halt+0x18>

Disassembly of section .text._trm_init:

000000008000407a <_trm_init>:
    8000407a:	1141                	addi	sp,sp,-16
    8000407c:	e406                	sd	ra,8(sp)
    8000407e:	014000ef          	jal	ra,80004092 <__am_init_uartlite>
    80004082:	00001517          	auipc	a0,0x1
    80004086:	64b50513          	addi	a0,a0,1611 # 800056cd <__am_mainargs>
    8000408a:	f6aff0ef          	jal	ra,800037f4 <main>
    8000408e:	fd3ff0ef          	jal	ra,80004060 <_halt>

Disassembly of section .text.__am_init_uartlite:

0000000080004092 <__am_init_uartlite>:
    80004092:	406007b7          	lui	a5,0x40600
    80004096:	470d                	li	a4,3
    80004098:	00e78623          	sb	a4,12(a5) # 4060000c <_start-0x3f9ffff4>
    8000409c:	8082                	ret

Disassembly of section .text.__am_uartlite_putchar:

000000008000409e <__am_uartlite_putchar>:
    8000409e:	47a9                	li	a5,10
    800040a0:	00f50b63          	beq	a0,a5,800040b6 <__am_uartlite_putchar+0x18>
    800040a4:	40600737          	lui	a4,0x40600
    800040a8:	00874783          	lbu	a5,8(a4) # 40600008 <_start-0x3f9ffff8>
    800040ac:	8ba1                	andi	a5,a5,8
    800040ae:	ffed                	bnez	a5,800040a8 <__am_uartlite_putchar+0xa>
    800040b0:	00a70223          	sb	a0,4(a4)
    800040b4:	8082                	ret
    800040b6:	40600737          	lui	a4,0x40600
    800040ba:	00874783          	lbu	a5,8(a4) # 40600008 <_start-0x3f9ffff8>
    800040be:	8ba1                	andi	a5,a5,8
    800040c0:	ffed                	bnez	a5,800040ba <__am_uartlite_putchar+0x1c>
    800040c2:	47b5                	li	a5,13
    800040c4:	00f70223          	sb	a5,4(a4)
    800040c8:	bff1                	j	800040a4 <__am_uartlite_putchar+0x6>

Disassembly of section .text._out_null:

00000000800040ca <_out_null>:
    800040ca:	8082                	ret

Disassembly of section .text._out_rev:

00000000800040cc <_out_rev>:
    800040cc:	711d                	addi	sp,sp,-96
    800040ce:	e4a6                	sd	s1,72(sp)
    800040d0:	e0ca                	sd	s2,64(sp)
    800040d2:	fc4e                	sd	s3,56(sp)
    800040d4:	f852                	sd	s4,48(sp)
    800040d6:	f456                	sd	s5,40(sp)
    800040d8:	f05a                	sd	s6,32(sp)
    800040da:	8ab2                	mv	s5,a2
    800040dc:	e862                	sd	s8,16(sp)
    800040de:	e466                	sd	s9,8(sp)
    800040e0:	e06a                	sd	s10,0(sp)
    800040e2:	ec86                	sd	ra,88(sp)
    800040e4:	e8a2                	sd	s0,80(sp)
    800040e6:	ec5e                	sd	s7,24(sp)
    800040e8:	0038f613          	andi	a2,a7,3
    800040ec:	8cc6                	mv	s9,a7
    800040ee:	892a                	mv	s2,a0
    800040f0:	89ae                	mv	s3,a1
    800040f2:	8a36                	mv	s4,a3
    800040f4:	8b3a                	mv	s6,a4
    800040f6:	8d3e                	mv	s10,a5
    800040f8:	8c42                	mv	s8,a6
    800040fa:	84d6                	mv	s1,s5
    800040fc:	e21d                	bnez	a2,80004122 <_out_rev+0x56>
    800040fe:	02081793          	slli	a5,a6,0x20
    80004102:	9381                	srli	a5,a5,0x20
    80004104:	41a784b3          	sub	s1,a5,s10
    80004108:	94d6                	add	s1,s1,s5
    8000410a:	8456                	mv	s0,s5
    8000410c:	08fd7063          	bgeu	s10,a5,8000418c <_out_rev+0xc0>
    80004110:	8622                	mv	a2,s0
    80004112:	86d2                	mv	a3,s4
    80004114:	0405                	addi	s0,s0,1
    80004116:	85ce                	mv	a1,s3
    80004118:	02000513          	li	a0,32
    8000411c:	9902                	jalr	s2
    8000411e:	fe9419e3          	bne	s0,s1,80004110 <_out_rev+0x44>
    80004122:	01ab0433          	add	s0,s6,s10
    80004126:	00848bb3          	add	s7,s1,s0
    8000412a:	000d0d63          	beqz	s10,80004144 <_out_rev+0x78>
    8000412e:	fff44503          	lbu	a0,-1(s0)
    80004132:	408b8633          	sub	a2,s7,s0
    80004136:	86d2                	mv	a3,s4
    80004138:	147d                	addi	s0,s0,-1
    8000413a:	85ce                	mv	a1,s3
    8000413c:	9902                	jalr	s2
    8000413e:	fe8b18e3          	bne	s6,s0,8000412e <_out_rev+0x62>
    80004142:	94ea                	add	s1,s1,s10
    80004144:	002cfc93          	andi	s9,s9,2
    80004148:	020c8363          	beqz	s9,8000416e <_out_rev+0xa2>
    8000414c:	1c02                	slli	s8,s8,0x20
    8000414e:	41548ab3          	sub	s5,s1,s5
    80004152:	020c5c13          	srli	s8,s8,0x20
    80004156:	018afc63          	bgeu	s5,s8,8000416e <_out_rev+0xa2>
    8000415a:	8626                	mv	a2,s1
    8000415c:	0a85                	addi	s5,s5,1
    8000415e:	86d2                	mv	a3,s4
    80004160:	85ce                	mv	a1,s3
    80004162:	02000513          	li	a0,32
    80004166:	0485                	addi	s1,s1,1
    80004168:	9902                	jalr	s2
    8000416a:	ff8ae8e3          	bltu	s5,s8,8000415a <_out_rev+0x8e>
    8000416e:	60e6                	ld	ra,88(sp)
    80004170:	6446                	ld	s0,80(sp)
    80004172:	6906                	ld	s2,64(sp)
    80004174:	79e2                	ld	s3,56(sp)
    80004176:	7a42                	ld	s4,48(sp)
    80004178:	7aa2                	ld	s5,40(sp)
    8000417a:	7b02                	ld	s6,32(sp)
    8000417c:	6be2                	ld	s7,24(sp)
    8000417e:	6c42                	ld	s8,16(sp)
    80004180:	6ca2                	ld	s9,8(sp)
    80004182:	6d02                	ld	s10,0(sp)
    80004184:	8526                	mv	a0,s1
    80004186:	64a6                	ld	s1,72(sp)
    80004188:	6125                	addi	sp,sp,96
    8000418a:	8082                	ret
    8000418c:	84d6                	mv	s1,s5
    8000418e:	bf51                	j	80004122 <_out_rev+0x56>

Disassembly of section .text._ntoa_long:

0000000080004190 <_ntoa_long>:
    80004190:	715d                	addi	sp,sp,-80
    80004192:	e486                	sd	ra,72(sp)
    80004194:	40e6                	lw	ra,88(sp)
    80004196:	fc26                	sd	s1,56(sp)
    80004198:	f44e                	sd	s3,40(sp)
    8000419a:	e0a2                	sd	s0,64(sp)
    8000419c:	f84a                	sd	s2,48(sp)
    8000419e:	8ec2                	mv	t4,a6
    800041a0:	8e3a                	mv	t3,a4
    800041a2:	4846                	lw	a6,80(sp)
    800041a4:	84be                	mv	s1,a5
    800041a6:	4000f993          	andi	s3,ra,1024
    800041aa:	e755                	bnez	a4,80004256 <_ntoa_long+0xc6>
    800041ac:	8906                	mv	s2,ra
    800041ae:	fef0f093          	andi	ra,ra,-17
    800041b2:	0a099c63          	bnez	s3,8000426a <_ntoa_long+0xda>
    800041b6:	0200f793          	andi	a5,ra,32
    800041ba:	4901                	li	s2,0
    800041bc:	06100293          	li	t0,97
    800041c0:	e3d5                	bnez	a5,80004264 <_ntoa_long+0xd4>
    800041c2:	4781                	li	a5,0
    800041c4:	870a                	mv	a4,sp
    800041c6:	43a5                	li	t2,9
    800041c8:	32d9                	addiw	t0,t0,-10
    800041ca:	02000413          	li	s0,32
    800041ce:	a021                	j	800041d6 <_ntoa_long+0x46>
    800041d0:	02878a63          	beq	a5,s0,80004204 <_ntoa_long+0x74>
    800041d4:	8e1a                	mv	t3,t1
    800041d6:	03de7f33          	remu	t5,t3,t4
    800041da:	0fff7313          	zext.b	t1,t5
    800041de:	03030f9b          	addiw	t6,t1,48
    800041e2:	0062833b          	addw	t1,t0,t1
    800041e6:	0ff37313          	zext.b	t1,t1
    800041ea:	01e3e463          	bltu	t2,t5,800041f2 <_ntoa_long+0x62>
    800041ee:	0ffff313          	zext.b	t1,t6
    800041f2:	0785                	addi	a5,a5,1
    800041f4:	00f70f33          	add	t5,a4,a5
    800041f8:	fe6f0fa3          	sb	t1,-1(t5)
    800041fc:	03de5333          	divu	t1,t3,t4
    80004200:	fdde78e3          	bgeu	t3,t4,800041d0 <_ntoa_long+0x40>
    80004204:	0020f313          	andi	t1,ra,2
    80004208:	06030763          	beqz	t1,80004276 <_ntoa_long+0xe6>
    8000420c:	10090e63          	beqz	s2,80004328 <_ntoa_long+0x198>
    80004210:	0e099763          	bnez	s3,800042fe <_ntoa_long+0x16e>
    80004214:	ebe9                	bnez	a5,800042e6 <_ntoa_long+0x156>
    80004216:	47c1                	li	a5,16
    80004218:	20fe8463          	beq	t4,a5,80004420 <_ntoa_long+0x290>
    8000421c:	4789                	li	a5,2
    8000421e:	22fe8063          	beq	t4,a5,8000443e <_ntoa_long+0x2ae>
    80004222:	03000793          	li	a5,48
    80004226:	00f10023          	sb	a5,0(sp)
    8000422a:	4785                	li	a5,1
    8000422c:	12048b63          	beqz	s1,80004362 <_ntoa_long+0x1d2>
    80004230:	02078413          	addi	s0,a5,32
    80004234:	002408b3          	add	a7,s0,sp
    80004238:	02d00313          	li	t1,45
    8000423c:	fe688023          	sb	t1,-32(a7)
    80004240:	0785                	addi	a5,a5,1
    80004242:	8886                	mv	a7,ra
    80004244:	e89ff0ef          	jal	ra,800040cc <_out_rev>
    80004248:	60a6                	ld	ra,72(sp)
    8000424a:	6406                	ld	s0,64(sp)
    8000424c:	74e2                	ld	s1,56(sp)
    8000424e:	7942                	ld	s2,48(sp)
    80004250:	79a2                	ld	s3,40(sp)
    80004252:	6161                	addi	sp,sp,80
    80004254:	8082                	ret
    80004256:	0200f793          	andi	a5,ra,32
    8000425a:	0100f913          	andi	s2,ra,16
    8000425e:	06100293          	li	t0,97
    80004262:	d3a5                	beqz	a5,800041c2 <_ntoa_long+0x32>
    80004264:	04100293          	li	t0,65
    80004268:	bfa9                	j	800041c2 <_ntoa_long+0x32>
    8000426a:	00297913          	andi	s2,s2,2
    8000426e:	4781                	li	a5,0
    80004270:	870a                	mv	a4,sp
    80004272:	fa091de3          	bnez	s2,8000422c <_ntoa_long+0x9c>
    80004276:	02089e13          	slli	t3,a7,0x20
    8000427a:	020e5e13          	srli	t3,t3,0x20
    8000427e:	8306                	mv	t1,ra
    80004280:	0010f293          	andi	t0,ra,1
    80004284:	0a081963          	bnez	a6,80004336 <_ntoa_long+0x1a6>
    80004288:	03c7f463          	bgeu	a5,t3,800042b0 <_ntoa_long+0x120>
    8000428c:	02000313          	li	t1,32
    80004290:	02678063          	beq	a5,t1,800042b0 <_ntoa_long+0x120>
    80004294:	03000f13          	li	t5,48
    80004298:	02000f93          	li	t6,32
    8000429c:	a019                	j	800042a2 <_ntoa_long+0x112>
    8000429e:	01f78963          	beq	a5,t6,800042b0 <_ntoa_long+0x120>
    800042a2:	0785                	addi	a5,a5,1
    800042a4:	00f70333          	add	t1,a4,a5
    800042a8:	ffe30fa3          	sb	t5,-1(t1)
    800042ac:	ffc7e9e3          	bltu	a5,t3,8000429e <_ntoa_long+0x10e>
    800042b0:	f4028ee3          	beqz	t0,8000420c <_ntoa_long+0x7c>
    800042b4:	02081f13          	slli	t5,a6,0x20
    800042b8:	020f5f13          	srli	t5,t5,0x20
    800042bc:	f5e7f8e3          	bgeu	a5,t5,8000420c <_ntoa_long+0x7c>
    800042c0:	02000313          	li	t1,32
    800042c4:	03000f93          	li	t6,48
    800042c8:	02000293          	li	t0,32
    800042cc:	00679563          	bne	a5,t1,800042d6 <_ntoa_long+0x146>
    800042d0:	a051                	j	80004354 <_ntoa_long+0x1c4>
    800042d2:	08578163          	beq	a5,t0,80004354 <_ntoa_long+0x1c4>
    800042d6:	0785                	addi	a5,a5,1
    800042d8:	00f70333          	add	t1,a4,a5
    800042dc:	fff30fa3          	sb	t6,-1(t1)
    800042e0:	ffe799e3          	bne	a5,t5,800042d2 <_ntoa_long+0x142>
    800042e4:	b725                	j	8000420c <_ntoa_long+0x7c>
    800042e6:	02089e13          	slli	t3,a7,0x20
    800042ea:	020e5e13          	srli	t3,t3,0x20
    800042ee:	0cfe0b63          	beq	t3,a5,800043c4 <_ntoa_long+0x234>
    800042f2:	02081893          	slli	a7,a6,0x20
    800042f6:	0208d893          	srli	a7,a7,0x20
    800042fa:	0cf88563          	beq	a7,a5,800043c4 <_ntoa_long+0x234>
    800042fe:	48c1                	li	a7,16
    80004300:	0f1e8263          	beq	t4,a7,800043e4 <_ntoa_long+0x254>
    80004304:	4889                	li	a7,2
    80004306:	0b1e8563          	beq	t4,a7,800043b0 <_ntoa_long+0x220>
    8000430a:	02000893          	li	a7,32
    8000430e:	f3178ae3          	beq	a5,a7,80004242 <_ntoa_long+0xb2>
    80004312:	88be                	mv	a7,a5
    80004314:	02088793          	addi	a5,a7,32
    80004318:	00278333          	add	t1,a5,sp
    8000431c:	00188793          	addi	a5,a7,1
    80004320:	03000893          	li	a7,48
    80004324:	ff130023          	sb	a7,-32(t1)
    80004328:	02000893          	li	a7,32
    8000432c:	f11790e3          	bne	a5,a7,8000422c <_ntoa_long+0x9c>
    80004330:	02000793          	li	a5,32
    80004334:	b739                	j	80004242 <_ntoa_long+0xb2>
    80004336:	04028863          	beqz	t0,80004386 <_ntoa_long+0x1f6>
    8000433a:	e0d9                	bnez	s1,800043c0 <_ntoa_long+0x230>
    8000433c:	00c37313          	andi	t1,t1,12
    80004340:	08031063          	bnez	t1,800043c0 <_ntoa_long+0x230>
    80004344:	f7c7f8e3          	bgeu	a5,t3,800042b4 <_ntoa_long+0x124>
    80004348:	02000313          	li	t1,32
    8000434c:	f46794e3          	bne	a5,t1,80004294 <_ntoa_long+0x104>
    80004350:	eb07fee3          	bgeu	a5,a6,8000420c <_ntoa_long+0x7c>
    80004354:	fc090ee3          	beqz	s2,80004330 <_ntoa_long+0x1a0>
    80004358:	02000793          	li	a5,32
    8000435c:	f80989e3          	beqz	s3,800042ee <_ntoa_long+0x15e>
    80004360:	bf79                	j	800042fe <_ntoa_long+0x16e>
    80004362:	0040f893          	andi	a7,ra,4
    80004366:	02089b63          	bnez	a7,8000439c <_ntoa_long+0x20c>
    8000436a:	0080f893          	andi	a7,ra,8
    8000436e:	ec088ae3          	beqz	a7,80004242 <_ntoa_long+0xb2>
    80004372:	02078413          	addi	s0,a5,32
    80004376:	002408b3          	add	a7,s0,sp
    8000437a:	02000313          	li	t1,32
    8000437e:	fe688023          	sb	t1,-32(a7)
    80004382:	0785                	addi	a5,a5,1
    80004384:	bd7d                	j	80004242 <_ntoa_long+0xb2>
    80004386:	e9c7f3e3          	bgeu	a5,t3,8000420c <_ntoa_long+0x7c>
    8000438a:	02000313          	li	t1,32
    8000438e:	f06793e3          	bne	a5,t1,80004294 <_ntoa_long+0x104>
    80004392:	e6091fe3          	bnez	s2,80004210 <_ntoa_long+0x80>
    80004396:	02000793          	li	a5,32
    8000439a:	b565                	j	80004242 <_ntoa_long+0xb2>
    8000439c:	02078413          	addi	s0,a5,32
    800043a0:	002408b3          	add	a7,s0,sp
    800043a4:	02b00313          	li	t1,43
    800043a8:	fe688023          	sb	t1,-32(a7)
    800043ac:	0785                	addi	a5,a5,1
    800043ae:	bd51                	j	80004242 <_ntoa_long+0xb2>
    800043b0:	02000893          	li	a7,32
    800043b4:	e91787e3          	beq	a5,a7,80004242 <_ntoa_long+0xb2>
    800043b8:	00f708b3          	add	a7,a4,a5
    800043bc:	0785                	addi	a5,a5,1
    800043be:	a831                	j	800043da <_ntoa_long+0x24a>
    800043c0:	387d                	addiw	a6,a6,-1
    800043c2:	b749                	j	80004344 <_ntoa_long+0x1b4>
    800043c4:	fff78893          	addi	a7,a5,-1
    800043c8:	e40887e3          	beqz	a7,80004216 <_ntoa_long+0x86>
    800043cc:	4341                	li	t1,16
    800043ce:	066e8e63          	beq	t4,t1,8000444a <_ntoa_long+0x2ba>
    800043d2:	4309                	li	t1,2
    800043d4:	f46e90e3          	bne	t4,t1,80004314 <_ntoa_long+0x184>
    800043d8:	98ba                	add	a7,a7,a4
    800043da:	06200313          	li	t1,98
    800043de:	00688023          	sb	t1,0(a7)
    800043e2:	b725                	j	8000430a <_ntoa_long+0x17a>
    800043e4:	0200f893          	andi	a7,ra,32
    800043e8:	00089e63          	bnez	a7,80004404 <_ntoa_long+0x274>
    800043ec:	02000893          	li	a7,32
    800043f0:	e51789e3          	beq	a5,a7,80004242 <_ntoa_long+0xb2>
    800043f4:	00f70333          	add	t1,a4,a5
    800043f8:	0785                	addi	a5,a5,1
    800043fa:	07800893          	li	a7,120
    800043fe:	01130023          	sb	a7,0(t1)
    80004402:	b721                	j	8000430a <_ntoa_long+0x17a>
    80004404:	02000893          	li	a7,32
    80004408:	e3178de3          	beq	a5,a7,80004242 <_ntoa_long+0xb2>
    8000440c:	02078413          	addi	s0,a5,32
    80004410:	002408b3          	add	a7,s0,sp
    80004414:	05800313          	li	t1,88
    80004418:	fe688023          	sb	t1,-32(a7)
    8000441c:	0785                	addi	a5,a5,1
    8000441e:	b5f5                	j	8000430a <_ntoa_long+0x17a>
    80004420:	0200f793          	andi	a5,ra,32
    80004424:	e799                	bnez	a5,80004432 <_ntoa_long+0x2a2>
    80004426:	07800793          	li	a5,120
    8000442a:	00f10023          	sb	a5,0(sp)
    8000442e:	4885                	li	a7,1
    80004430:	b5d5                	j	80004314 <_ntoa_long+0x184>
    80004432:	05800793          	li	a5,88
    80004436:	00f10023          	sb	a5,0(sp)
    8000443a:	4885                	li	a7,1
    8000443c:	bde1                	j	80004314 <_ntoa_long+0x184>
    8000443e:	06200793          	li	a5,98
    80004442:	00f10023          	sb	a5,0(sp)
    80004446:	4885                	li	a7,1
    80004448:	b5f1                	j	80004314 <_ntoa_long+0x184>
    8000444a:	0200f313          	andi	t1,ra,32
    8000444e:	17f9                	addi	a5,a5,-2
    80004450:	fa031ee3          	bnez	t1,8000440c <_ntoa_long+0x27c>
    80004454:	00f70333          	add	t1,a4,a5
    80004458:	87c6                	mv	a5,a7
    8000445a:	b745                	j	800043fa <_ntoa_long+0x26a>

Disassembly of section .text._etoa:

000000008000445c <_etoa>:
    8000445c:	a2a528d3          	feq.d	a7,fa0,fa0
    80004460:	7159                	addi	sp,sp,-112
    80004462:	f0a2                	sd	s0,96(sp)
    80004464:	e8ca                	sd	s2,80(sp)
    80004466:	e0d2                	sd	s4,64(sp)
    80004468:	f85a                	sd	s6,48(sp)
    8000446a:	f45e                	sd	s7,40(sp)
    8000446c:	f062                	sd	s8,32(sp)
    8000446e:	f486                	sd	ra,104(sp)
    80004470:	eca6                	sd	s1,88(sp)
    80004472:	e4ce                	sd	s3,72(sp)
    80004474:	fc56                	sd	s5,56(sp)
    80004476:	ec66                	sd	s9,24(sp)
    80004478:	8b2a                	mv	s6,a0
    8000447a:	8bae                	mv	s7,a1
    8000447c:	8932                	mv	s2,a2
    8000447e:	8c36                	mv	s8,a3
    80004480:	8a3e                	mv	s4,a5
    80004482:	8442                	mv	s0,a6
    80004484:	26088d63          	beqz	a7,800046fe <_etoa+0x2a2>
    80004488:	00001797          	auipc	a5,0x1
    8000448c:	4587b787          	fld	fa5,1112(a5) # 800058e0 <pow10.0+0x50>
    80004490:	a2a797d3          	flt.d	a5,fa5,fa0
    80004494:	26079563          	bnez	a5,800046fe <_etoa+0x2a2>
    80004498:	00001797          	auipc	a5,0x1
    8000449c:	4507b787          	fld	fa5,1104(a5) # 800058e8 <pow10.0+0x58>
    800044a0:	a2f517d3          	flt.d	a5,fa0,fa5
    800044a4:	24079d63          	bnez	a5,800046fe <_etoa+0x2a2>
    800044a8:	f20007d3          	fmv.d.x	fa5,zero
    800044ac:	e20506d3          	fmv.x.d	a3,fa0
    800044b0:	a2f517d3          	flt.d	a5,fa0,fa5
    800044b4:	c789                	beqz	a5,800044be <_etoa+0x62>
    800044b6:	22a517d3          	fneg.d	fa5,fa0
    800044ba:	e20786d3          	fmv.x.d	a3,fa5
    800044be:	40047593          	andi	a1,s0,1024
    800044c2:	e191                	bnez	a1,800044c6 <_etoa+0x6a>
    800044c4:	4719                	li	a4,6
    800044c6:	0346d793          	srli	a5,a3,0x34
    800044ca:	7ff7f793          	andi	a5,a5,2047
    800044ce:	00001617          	auipc	a2,0x1
    800044d2:	42263687          	fld	fa3,1058(a2) # 800058f0 <pow10.0+0x60>
    800044d6:	00001617          	auipc	a2,0x1
    800044da:	42263707          	fld	fa4,1058(a2) # 800058f8 <pow10.0+0x68>
    800044de:	c017879b          	addiw	a5,a5,-1023
    800044e2:	d2078653          	fcvt.d.w	fa2,a5
    800044e6:	3ff00613          	li	a2,1023
    800044ea:	00c69793          	slli	a5,a3,0xc
    800044ee:	1652                	slli	a2,a2,0x34
    800044f0:	83b1                	srli	a5,a5,0xc
    800044f2:	8fd1                	or	a5,a5,a2
    800044f4:	72d67643          	fmadd.d	fa2,fa2,fa3,fa4
    800044f8:	f2078753          	fmv.d.x	fa4,a5
    800044fc:	00001617          	auipc	a2,0x1
    80004500:	40463787          	fld	fa5,1028(a2) # 80005900 <pow10.0+0x70>
    80004504:	00001797          	auipc	a5,0x1
    80004508:	4047b587          	fld	fa1,1028(a5) # 80005908 <pow10.0+0x78>
    8000450c:	0af777d3          	fsub.d	fa5,fa4,fa5
    80004510:	00001797          	auipc	a5,0x1
    80004514:	4007b687          	fld	fa3,1024(a5) # 80005910 <pow10.0+0x80>
    80004518:	00001797          	auipc	a5,0x1
    8000451c:	4007b207          	fld	ft4,1024(a5) # 80005918 <pow10.0+0x88>
    80004520:	00001797          	auipc	a5,0x1
    80004524:	4007b187          	fld	ft3,1024(a5) # 80005920 <pow10.0+0x90>
    80004528:	00001797          	auipc	a5,0x1
    8000452c:	4007b107          	fld	ft2,1024(a5) # 80005928 <pow10.0+0x98>
    80004530:	00001797          	auipc	a5,0x1
    80004534:	4007b707          	fld	fa4,1024(a5) # 80005930 <pow10.0+0xa0>
    80004538:	00001797          	auipc	a5,0x1
    8000453c:	4087b087          	fld	ft1,1032(a5) # 80005940 <pow10.0+0xb0>
    80004540:	62b7f7c3          	fmadd.d	fa5,fa5,fa1,fa2
    80004544:	00001797          	auipc	a5,0x1
    80004548:	40c7b007          	fld	ft0,1036(a5) # 80005950 <pow10.0+0xc0>
    8000454c:	00001797          	auipc	a5,0x1
    80004550:	3ec7b587          	fld	fa1,1004(a5) # 80005938 <pow10.0+0xa8>
    80004554:	00001797          	auipc	a5,0x1
    80004558:	3f47b607          	fld	fa2,1012(a5) # 80005948 <pow10.0+0xb8>
    8000455c:	c2079653          	fcvt.w.d	a2,fa5,rtz
    80004560:	d20607d3          	fcvt.d.w	fa5,a2
    80004564:	00060c9b          	sext.w	s9,a2
    80004568:	22d7f6c3          	fmadd.d	fa3,fa5,fa3,ft4
    8000456c:	c20697d3          	fcvt.w.d	a5,fa3,rtz
    80004570:	d20786d3          	fcvt.d.w	fa3,a5
    80004574:	3ff7879b          	addiw	a5,a5,1023
    80004578:	17d2                	slli	a5,a5,0x34
    8000457a:	1236f6d3          	fmul.d	fa3,fa3,ft3
    8000457e:	6a27f7c7          	fmsub.d	fa5,fa5,ft2,fa3
    80004582:	12f7f6d3          	fmul.d	fa3,fa5,fa5
    80004586:	0af67653          	fsub.d	fa2,fa2,fa5
    8000458a:	02f7f7d3          	fadd.d	fa5,fa5,fa5
    8000458e:	1ae6f753          	fdiv.d	fa4,fa3,fa4
    80004592:	02b77753          	fadd.d	fa4,fa4,fa1
    80004596:	1ae6f753          	fdiv.d	fa4,fa3,fa4
    8000459a:	02177753          	fadd.d	fa4,fa4,ft1
    8000459e:	1ae6f6d3          	fdiv.d	fa3,fa3,fa4
    800045a2:	f2078753          	fmv.d.x	fa4,a5
    800045a6:	02c6f6d3          	fadd.d	fa3,fa3,fa2
    800045aa:	1ad7f7d3          	fdiv.d	fa5,fa5,fa3
    800045ae:	0207f7d3          	fadd.d	fa5,fa5,ft0
    800045b2:	12e7f7d3          	fmul.d	fa5,fa5,fa4
    800045b6:	f2068753          	fmv.d.x	fa4,a3
    800045ba:	a2f717d3          	flt.d	a5,fa4,fa5
    800045be:	e20788d3          	fmv.x.d	a7,fa5
    800045c2:	c799                	beqz	a5,800045d0 <_etoa+0x174>
    800045c4:	1ab7f7d3          	fdiv.d	fa5,fa5,fa1
    800045c8:	fff60c9b          	addiw	s9,a2,-1
    800045cc:	e20788d3          	fmv.x.d	a7,fa5
    800045d0:	063c899b          	addiw	s3,s9,99
    800045d4:	00b45793          	srli	a5,s0,0xb
    800045d8:	0c600613          	li	a2,198
    800045dc:	013639b3          	sltu	s3,a2,s3
    800045e0:	8b85                	andi	a5,a5,1
    800045e2:	0991                	addi	s3,s3,4
    800045e4:	c3a1                	beqz	a5,80004624 <_etoa+0x1c8>
    800045e6:	f2068753          	fmv.d.x	fa4,a3
    800045ea:	00001797          	auipc	a5,0x1
    800045ee:	36e7b787          	fld	fa5,878(a5) # 80005958 <pow10.0+0xc8>
    800045f2:	a2e787d3          	fle.d	a5,fa5,fa4
    800045f6:	14078063          	beqz	a5,80004736 <_etoa+0x2da>
    800045fa:	00001797          	auipc	a5,0x1
    800045fe:	3667b787          	fld	fa5,870(a5) # 80005960 <pow10.0+0xd0>
    80004602:	a2f717d3          	flt.d	a5,fa4,fa5
    80004606:	12078863          	beqz	a5,80004736 <_etoa+0x2da>
    8000460a:	0007079b          	sext.w	a5,a4
    8000460e:	4701                	li	a4,0
    80004610:	00fcd663          	bge	s9,a5,8000461c <_etoa+0x1c0>
    80004614:	419787bb          	subw	a5,a5,s9
    80004618:	fff7871b          	addiw	a4,a5,-1
    8000461c:	40046413          	ori	s0,s0,1024
    80004620:	4981                	li	s3,0
    80004622:	4c81                	li	s9,0
    80004624:	4781                	li	a5,0
    80004626:	0149f463          	bgeu	s3,s4,8000462e <_etoa+0x1d2>
    8000462a:	413a07bb          	subw	a5,s4,s3
    8000462e:	00247a93          	andi	s5,s0,2
    80004632:	000a8763          	beqz	s5,80004640 <_etoa+0x1e4>
    80004636:	0019b613          	seqz	a2,s3
    8000463a:	40c00633          	neg	a2,a2
    8000463e:	8ff1                	and	a5,a5,a2
    80004640:	0e0c9263          	bnez	s9,80004724 <_etoa+0x2c8>
    80004644:	f20007d3          	fmv.d.x	fa5,zero
    80004648:	a2f51653          	flt.d	a2,fa0,fa5
    8000464c:	c619                	beqz	a2,8000465a <_etoa+0x1fe>
    8000464e:	f20687d3          	fmv.d.x	fa5,a3
    80004652:	22f797d3          	fneg.d	fa5,fa5
    80004656:	e20786d3          	fmv.x.d	a3,fa5
    8000465a:	f2068553          	fmv.d.x	fa0,a3
    8000465e:	787d                	lui	a6,0xfffff
    80004660:	7ff80813          	addi	a6,a6,2047 # fffffffffffff7ff <_pmem_end+0xffffffff77fff7ff>
    80004664:	01047833          	and	a6,s0,a6
    80004668:	86e2                	mv	a3,s8
    8000466a:	864a                	mv	a2,s2
    8000466c:	85de                	mv	a1,s7
    8000466e:	855a                	mv	a0,s6
    80004670:	0d2000ef          	jal	ra,80004742 <_ftoa>
    80004674:	84aa                	mv	s1,a0
    80004676:	06098663          	beqz	s3,800046e2 <_etoa+0x286>
    8000467a:	02047413          	andi	s0,s0,32
    8000467e:	04500513          	li	a0,69
    80004682:	e019                	bnez	s0,80004688 <_etoa+0x22c>
    80004684:	06500513          	li	a0,101
    80004688:	8626                	mv	a2,s1
    8000468a:	86e2                	mv	a3,s8
    8000468c:	85de                	mv	a1,s7
    8000468e:	9b02                	jalr	s6
    80004690:	41fcd71b          	sraiw	a4,s9,0x1f
    80004694:	00ecc6b3          	xor	a3,s9,a4
    80004698:	4795                	li	a5,5
    8000469a:	39fd                	addiw	s3,s3,-1
    8000469c:	00148613          	addi	a2,s1,1
    800046a0:	e43e                	sd	a5,8(sp)
    800046a2:	40e6873b          	subw	a4,a3,a4
    800046a6:	e04e                	sd	s3,0(sp)
    800046a8:	4881                	li	a7,0
    800046aa:	4829                	li	a6,10
    800046ac:	01fcd79b          	srliw	a5,s9,0x1f
    800046b0:	86e2                	mv	a3,s8
    800046b2:	85de                	mv	a1,s7
    800046b4:	855a                	mv	a0,s6
    800046b6:	adbff0ef          	jal	ra,80004190 <_ntoa_long>
    800046ba:	84aa                	mv	s1,a0
    800046bc:	020a8363          	beqz	s5,800046e2 <_etoa+0x286>
    800046c0:	1a02                	slli	s4,s4,0x20
    800046c2:	41250933          	sub	s2,a0,s2
    800046c6:	020a5a13          	srli	s4,s4,0x20
    800046ca:	01497c63          	bgeu	s2,s4,800046e2 <_etoa+0x286>
    800046ce:	8626                	mv	a2,s1
    800046d0:	0905                	addi	s2,s2,1
    800046d2:	86e2                	mv	a3,s8
    800046d4:	85de                	mv	a1,s7
    800046d6:	02000513          	li	a0,32
    800046da:	0485                	addi	s1,s1,1
    800046dc:	9b02                	jalr	s6
    800046de:	ff4968e3          	bltu	s2,s4,800046ce <_etoa+0x272>
    800046e2:	70a6                	ld	ra,104(sp)
    800046e4:	7406                	ld	s0,96(sp)
    800046e6:	6946                	ld	s2,80(sp)
    800046e8:	69a6                	ld	s3,72(sp)
    800046ea:	6a06                	ld	s4,64(sp)
    800046ec:	7ae2                	ld	s5,56(sp)
    800046ee:	7b42                	ld	s6,48(sp)
    800046f0:	7ba2                	ld	s7,40(sp)
    800046f2:	7c02                	ld	s8,32(sp)
    800046f4:	6ce2                	ld	s9,24(sp)
    800046f6:	8526                	mv	a0,s1
    800046f8:	64e6                	ld	s1,88(sp)
    800046fa:	6165                	addi	sp,sp,112
    800046fc:	8082                	ret
    800046fe:	8822                	mv	a6,s0
    80004700:	7406                	ld	s0,96(sp)
    80004702:	70a6                	ld	ra,104(sp)
    80004704:	64e6                	ld	s1,88(sp)
    80004706:	69a6                	ld	s3,72(sp)
    80004708:	7ae2                	ld	s5,56(sp)
    8000470a:	6ce2                	ld	s9,24(sp)
    8000470c:	87d2                	mv	a5,s4
    8000470e:	86e2                	mv	a3,s8
    80004710:	6a06                	ld	s4,64(sp)
    80004712:	7c02                	ld	s8,32(sp)
    80004714:	864a                	mv	a2,s2
    80004716:	85de                	mv	a1,s7
    80004718:	6946                	ld	s2,80(sp)
    8000471a:	7ba2                	ld	s7,40(sp)
    8000471c:	855a                	mv	a0,s6
    8000471e:	7b42                	ld	s6,48(sp)
    80004720:	6165                	addi	sp,sp,112
    80004722:	a005                	j	80004742 <_ftoa>
    80004724:	f20687d3          	fmv.d.x	fa5,a3
    80004728:	f2088753          	fmv.d.x	fa4,a7
    8000472c:	1ae7f7d3          	fdiv.d	fa5,fa5,fa4
    80004730:	e20786d3          	fmv.x.d	a3,fa5
    80004734:	bf01                	j	80004644 <_etoa+0x1e8>
    80004736:	ee0707e3          	beqz	a4,80004624 <_etoa+0x1c8>
    8000473a:	ee0585e3          	beqz	a1,80004624 <_etoa+0x1c8>
    8000473e:	377d                	addiw	a4,a4,-1
    80004740:	b5d5                	j	80004624 <_etoa+0x1c8>

Disassembly of section .text._ftoa:

0000000080004742 <_ftoa>:
    80004742:	a2a52353          	feq.d	t1,fa0,fa0
    80004746:	8fbe                	mv	t6,a5
    80004748:	88c2                	mv	a7,a6
    8000474a:	18030563          	beqz	t1,800048d4 <_ftoa+0x192>
    8000474e:	00001797          	auipc	a5,0x1
    80004752:	19a7b787          	fld	fa5,410(a5) # 800058e8 <pow10.0+0x58>
    80004756:	a2f517d3          	flt.d	a5,fa0,fa5
    8000475a:	24079463          	bnez	a5,800049a2 <_ftoa+0x260>
    8000475e:	00001797          	auipc	a5,0x1
    80004762:	1827b787          	fld	fa5,386(a5) # 800058e0 <pow10.0+0x50>
    80004766:	a2a797d3          	flt.d	a5,fa5,fa0
    8000476a:	7139                	addi	sp,sp,-64
    8000476c:	f822                	sd	s0,48(sp)
    8000476e:	f426                	sd	s1,40(sp)
    80004770:	fc06                	sd	ra,56(sp)
    80004772:	82aa                	mv	t0,a0
    80004774:	83ae                	mv	t2,a1
    80004776:	8432                	mv	s0,a2
    80004778:	84b6                	mv	s1,a3
    8000477a:	12079a63          	bnez	a5,800048ae <_ftoa+0x16c>
    8000477e:	00001797          	auipc	a5,0x1
    80004782:	1ea7b787          	fld	fa5,490(a5) # 80005968 <pow10.0+0xd8>
    80004786:	a2a797d3          	flt.d	a5,fa5,fa0
    8000478a:	20079163          	bnez	a5,8000498c <_ftoa+0x24a>
    8000478e:	00001797          	auipc	a5,0x1
    80004792:	1e27b787          	fld	fa5,482(a5) # 80005970 <pow10.0+0xe0>
    80004796:	a2f517d3          	flt.d	a5,fa0,fa5
    8000479a:	1e079963          	bnez	a5,8000498c <_ftoa+0x24a>
    8000479e:	f20007d3          	fmv.d.x	fa5,zero
    800047a2:	4581                	li	a1,0
    800047a4:	a2f517d3          	flt.d	a5,fa0,fa5
    800047a8:	1c079e63          	bnez	a5,80004984 <_ftoa+0x242>
    800047ac:	4008f793          	andi	a5,a7,1024
    800047b0:	e391                	bnez	a5,800047b4 <_ftoa+0x72>
    800047b2:	4719                	li	a4,6
    800047b4:	4301                	li	t1,0
    800047b6:	47a5                	li	a5,9
    800047b8:	03000613          	li	a2,48
    800047bc:	02000693          	li	a3,32
    800047c0:	00e7fa63          	bgeu	a5,a4,800047d4 <_ftoa+0x92>
    800047c4:	0305                	addi	t1,t1,1
    800047c6:	00610e33          	add	t3,sp,t1
    800047ca:	fece0fa3          	sb	a2,-1(t3)
    800047ce:	377d                	addiw	a4,a4,-1
    800047d0:	fed318e3          	bne	t1,a3,800047c0 <_ftoa+0x7e>
    800047d4:	c20516d3          	fcvt.w.d	a3,fa0,rtz
    800047d8:	02071793          	slli	a5,a4,0x20
    800047dc:	01d7d613          	srli	a2,a5,0x1d
    800047e0:	d20687d3          	fcvt.d.w	fa5,a3
    800047e4:	00001797          	auipc	a5,0x1
    800047e8:	0ac78793          	addi	a5,a5,172 # 80005890 <pow10.0>
    800047ec:	97b2                	add	a5,a5,a2
    800047ee:	0af577d3          	fsub.d	fa5,fa0,fa5
    800047f2:	2394                	fld	fa3,0(a5)
    800047f4:	00001797          	auipc	a5,0x1
    800047f8:	1247b707          	fld	fa4,292(a5) # 80005918 <pow10.0+0x88>
    800047fc:	00068e1b          	sext.w	t3,a3
    80004800:	12d7f7d3          	fmul.d	fa5,fa5,fa3
    80004804:	c2379f53          	fcvt.lu.d	t5,fa5,rtz
    80004808:	d23f7653          	fcvt.d.lu	fa2,t5
    8000480c:	0ac7f7d3          	fsub.d	fa5,fa5,fa2
    80004810:	a2f717d3          	flt.d	a5,fa4,fa5
    80004814:	cbe1                	beqz	a5,800048e4 <_ftoa+0x1a2>
    80004816:	0f05                	addi	t5,t5,1
    80004818:	d23f77d3          	fcvt.d.lu	fa5,t5
    8000481c:	a2f687d3          	fle.d	a5,fa3,fa5
    80004820:	c781                	beqz	a5,80004828 <_ftoa+0xe6>
    80004822:	00168e1b          	addiw	t3,a3,1
    80004826:	4f01                	li	t5,0
    80004828:	e769                	bnez	a4,800048f2 <_ftoa+0x1b0>
    8000482a:	d20e07d3          	fcvt.d.w	fa5,t3
    8000482e:	0af57553          	fsub.d	fa0,fa0,fa5
    80004832:	a2e517d3          	flt.d	a5,fa0,fa4
    80004836:	c781                	beqz	a5,8000483e <_ftoa+0xfc>
    80004838:	a2a717d3          	flt.d	a5,fa4,fa0
    8000483c:	c789                	beqz	a5,80004846 <_ftoa+0x104>
    8000483e:	001e7793          	andi	a5,t3,1
    80004842:	c391                	beqz	a5,80004846 <_ftoa+0x104>
    80004844:	2e05                	addiw	t3,t3,1
    80004846:	02000693          	li	a3,32
    8000484a:	47a9                	li	a5,10
    8000484c:	0cd30f63          	beq	t1,a3,8000492a <_ftoa+0x1e8>
    80004850:	02fe673b          	remw	a4,t3,a5
    80004854:	0305                	addi	t1,t1,1
    80004856:	00610833          	add	a6,sp,t1
    8000485a:	02fe4e3b          	divw	t3,t3,a5
    8000485e:	0307071b          	addiw	a4,a4,48
    80004862:	fee80fa3          	sb	a4,-1(a6)
    80004866:	fe0e13e3          	bnez	t3,8000484c <_ftoa+0x10a>
    8000486a:	0038f793          	andi	a5,a7,3
    8000486e:	4705                	li	a4,1
    80004870:	1ce78963          	beq	a5,a4,80004a42 <_ftoa+0x300>
    80004874:	02000713          	li	a4,32
    80004878:	1ae30e63          	beq	t1,a4,80004a34 <_ftoa+0x2f2>
    8000487c:	12058b63          	beqz	a1,800049b2 <_ftoa+0x270>
    80004880:	02030793          	addi	a5,t1,32
    80004884:	00278733          	add	a4,a5,sp
    80004888:	02d00693          	li	a3,45
    8000488c:	00130793          	addi	a5,t1,1
    80004890:	fed70023          	sb	a3,-32(a4)
    80004894:	870a                	mv	a4,sp
    80004896:	86a6                	mv	a3,s1
    80004898:	8622                	mv	a2,s0
    8000489a:	887e                	mv	a6,t6
    8000489c:	859e                	mv	a1,t2
    8000489e:	8516                	mv	a0,t0
    800048a0:	82dff0ef          	jal	ra,800040cc <_out_rev>
    800048a4:	70e2                	ld	ra,56(sp)
    800048a6:	7442                	ld	s0,48(sp)
    800048a8:	74a2                	ld	s1,40(sp)
    800048aa:	6121                	addi	sp,sp,64
    800048ac:	8082                	ret
    800048ae:	00487793          	andi	a5,a6,4
    800048b2:	e3f9                	bnez	a5,80004978 <_ftoa+0x236>
    800048b4:	00001717          	auipc	a4,0x1
    800048b8:	e2470713          	addi	a4,a4,-476 # 800056d8 <__am_mainargs+0xb>
    800048bc:	478d                	li	a5,3
    800048be:	8622                	mv	a2,s0
    800048c0:	7442                	ld	s0,48(sp)
    800048c2:	70e2                	ld	ra,56(sp)
    800048c4:	86a6                	mv	a3,s1
    800048c6:	74a2                	ld	s1,40(sp)
    800048c8:	887e                	mv	a6,t6
    800048ca:	859e                	mv	a1,t2
    800048cc:	8516                	mv	a0,t0
    800048ce:	6121                	addi	sp,sp,64
    800048d0:	ffcff06f          	j	800040cc <_out_rev>
    800048d4:	883e                	mv	a6,a5
    800048d6:	00001717          	auipc	a4,0x1
    800048da:	e0a70713          	addi	a4,a4,-502 # 800056e0 <__am_mainargs+0x13>
    800048de:	478d                	li	a5,3
    800048e0:	fecff06f          	j	800040cc <_out_rev>
    800048e4:	a2e797d3          	flt.d	a5,fa5,fa4
    800048e8:	f3a1                	bnez	a5,80004828 <_ftoa+0xe6>
    800048ea:	120f1f63          	bnez	t5,80004a28 <_ftoa+0x2e6>
    800048ee:	0f05                	addi	t5,t5,1
    800048f0:	df0d                	beqz	a4,8000482a <_ftoa+0xe8>
    800048f2:	fe07081b          	addiw	a6,a4,-32
    800048f6:	0068083b          	addw	a6,a6,t1
    800048fa:	46a9                	li	a3,10
    800048fc:	40a5                	li	ra,9
    800048fe:	a005                	j	8000491e <_ftoa+0x1dc>
    80004900:	02df77b3          	remu	a5,t5,a3
    80004904:	fff7051b          	addiw	a0,a4,-1
    80004908:	0307879b          	addiw	a5,a5,48
    8000490c:	fef60fa3          	sb	a5,-1(a2)
    80004910:	02df57b3          	divu	a5,t5,a3
    80004914:	0be0ff63          	bgeu	ra,t5,800049d2 <_ftoa+0x290>
    80004918:	872a                	mv	a4,a0
    8000491a:	8376                	mv	t1,t4
    8000491c:	8f3e                	mv	t5,a5
    8000491e:	00130e93          	addi	t4,t1,1
    80004922:	01d10633          	add	a2,sp,t4
    80004926:	fd071de3          	bne	a4,a6,80004900 <_ftoa+0x1be>
    8000492a:	0038f793          	andi	a5,a7,3
    8000492e:	4705                	li	a4,1
    80004930:	10e79263          	bne	a5,a4,80004a34 <_ftoa+0x2f2>
    80004934:	02000793          	li	a5,32
    80004938:	f40f8ee3          	beqz	t6,80004894 <_ftoa+0x152>
    8000493c:	0e059f63          	bnez	a1,80004a3a <_ftoa+0x2f8>
    80004940:	00c8f713          	andi	a4,a7,12
    80004944:	db21                	beqz	a4,80004894 <_ftoa+0x152>
    80004946:	3ffd                	addiw	t6,t6,-1
    80004948:	020f9313          	slli	t1,t6,0x20
    8000494c:	02035313          	srli	t1,t1,0x20
    80004950:	1067f263          	bgeu	a5,t1,80004a54 <_ftoa+0x312>
    80004954:	02000713          	li	a4,32
    80004958:	03000613          	li	a2,48
    8000495c:	02000693          	li	a3,32
    80004960:	f2e78ae3          	beq	a5,a4,80004894 <_ftoa+0x152>
    80004964:	0785                	addi	a5,a5,1
    80004966:	00f10733          	add	a4,sp,a5
    8000496a:	fec70fa3          	sb	a2,-1(a4)
    8000496e:	f06783e3          	beq	a5,t1,80004874 <_ftoa+0x132>
    80004972:	fed799e3          	bne	a5,a3,80004964 <_ftoa+0x222>
    80004976:	bf39                	j	80004894 <_ftoa+0x152>
    80004978:	00001717          	auipc	a4,0x1
    8000497c:	d5870713          	addi	a4,a4,-680 # 800056d0 <__am_mainargs+0x3>
    80004980:	4791                	li	a5,4
    80004982:	bf35                	j	800048be <_ftoa+0x17c>
    80004984:	0aa7f553          	fsub.d	fa0,fa5,fa0
    80004988:	4585                	li	a1,1
    8000498a:	b50d                	j	800047ac <_ftoa+0x6a>
    8000498c:	8622                	mv	a2,s0
    8000498e:	7442                	ld	s0,48(sp)
    80004990:	70e2                	ld	ra,56(sp)
    80004992:	86a6                	mv	a3,s1
    80004994:	74a2                	ld	s1,40(sp)
    80004996:	8846                	mv	a6,a7
    80004998:	87fe                	mv	a5,t6
    8000499a:	859e                	mv	a1,t2
    8000499c:	8516                	mv	a0,t0
    8000499e:	6121                	addi	sp,sp,64
    800049a0:	bc75                	j	8000445c <_etoa>
    800049a2:	887e                	mv	a6,t6
    800049a4:	4791                	li	a5,4
    800049a6:	00001717          	auipc	a4,0x1
    800049aa:	d4270713          	addi	a4,a4,-702 # 800056e8 <__am_mainargs+0x1b>
    800049ae:	f1eff06f          	j	800040cc <_out_rev>
    800049b2:	0048f793          	andi	a5,a7,4
    800049b6:	efb1                	bnez	a5,80004a12 <_ftoa+0x2d0>
    800049b8:	0088f693          	andi	a3,a7,8
    800049bc:	879a                	mv	a5,t1
    800049be:	ec068be3          	beqz	a3,80004894 <_ftoa+0x152>
    800049c2:	02030693          	addi	a3,t1,32
    800049c6:	00268333          	add	t1,a3,sp
    800049ca:	0785                	addi	a5,a5,1
    800049cc:	fee30023          	sb	a4,-32(t1)
    800049d0:	b5d1                	j	80004894 <_ftoa+0x152>
    800049d2:	02000793          	li	a5,32
    800049d6:	f4fe8ae3          	beq	t4,a5,8000492a <_ftoa+0x1e8>
    800049da:	3779                	addiw	a4,a4,-2
    800049dc:	c12d                	beqz	a0,80004a3e <_ftoa+0x2fc>
    800049de:	1702                	slli	a4,a4,0x20
    800049e0:	9301                	srli	a4,a4,0x20
    800049e2:	0309                	addi	t1,t1,2
    800049e4:	933a                	add	t1,t1,a4
    800049e6:	03000693          	li	a3,48
    800049ea:	02000713          	li	a4,32
    800049ee:	0e85                	addi	t4,t4,1
    800049f0:	01d107b3          	add	a5,sp,t4
    800049f4:	fed78fa3          	sb	a3,-1(a5)
    800049f8:	f2ee89e3          	beq	t4,a4,8000492a <_ftoa+0x1e8>
    800049fc:	fe6e99e3          	bne	t4,t1,800049ee <_ftoa+0x2ac>
    80004a00:	02030793          	addi	a5,t1,32
    80004a04:	978a                	add	a5,a5,sp
    80004a06:	02e00713          	li	a4,46
    80004a0a:	0305                	addi	t1,t1,1
    80004a0c:	fee78023          	sb	a4,-32(a5)
    80004a10:	bd1d                	j	80004846 <_ftoa+0x104>
    80004a12:	02030793          	addi	a5,t1,32
    80004a16:	00278733          	add	a4,a5,sp
    80004a1a:	02b00693          	li	a3,43
    80004a1e:	00130793          	addi	a5,t1,1
    80004a22:	fed70023          	sb	a3,-32(a4)
    80004a26:	b5bd                	j	80004894 <_ftoa+0x152>
    80004a28:	001f7793          	andi	a5,t5,1
    80004a2c:	de078ee3          	beqz	a5,80004828 <_ftoa+0xe6>
    80004a30:	0f05                	addi	t5,t5,1
    80004a32:	bd7d                	j	800048f0 <_ftoa+0x1ae>
    80004a34:	02000793          	li	a5,32
    80004a38:	bdb1                	j	80004894 <_ftoa+0x152>
    80004a3a:	3ffd                	addiw	t6,t6,-1
    80004a3c:	bda1                	j	80004894 <_ftoa+0x152>
    80004a3e:	8376                	mv	t1,t4
    80004a40:	b7c1                	j	80004a00 <_ftoa+0x2be>
    80004a42:	e20f89e3          	beqz	t6,80004874 <_ftoa+0x132>
    80004a46:	e989                	bnez	a1,80004a58 <_ftoa+0x316>
    80004a48:	00c8f713          	andi	a4,a7,12
    80004a4c:	879a                	mv	a5,t1
    80004a4e:	ee070de3          	beqz	a4,80004948 <_ftoa+0x206>
    80004a52:	bdd5                	j	80004946 <_ftoa+0x204>
    80004a54:	833e                	mv	t1,a5
    80004a56:	bd39                	j	80004874 <_ftoa+0x132>
    80004a58:	879a                	mv	a5,t1
    80004a5a:	b5f5                	j	80004946 <_ftoa+0x204>

Disassembly of section .text._out_char:

0000000080004a5c <_out_char>:
    80004a5c:	e111                	bnez	a0,80004a60 <_out_char+0x4>
    80004a5e:	8082                	ret
    80004a60:	dfeff06f          	j	8000405e <_putc>

Disassembly of section .text._vsnprintf:

0000000080004a64 <_vsnprintf>:
    80004a64:	7171                	addi	sp,sp,-176
    80004a66:	ed26                	sd	s1,152(sp)
    80004a68:	e54e                	sd	s3,136(sp)
    80004a6a:	e152                	sd	s4,128(sp)
    80004a6c:	f8da                	sd	s6,112(sp)
    80004a6e:	f0e2                	sd	s8,96(sp)
    80004a70:	f506                	sd	ra,168(sp)
    80004a72:	f122                	sd	s0,160(sp)
    80004a74:	e94a                	sd	s2,144(sp)
    80004a76:	fcd6                	sd	s5,120(sp)
    80004a78:	f4de                	sd	s7,104(sp)
    80004a7a:	ece6                	sd	s9,88(sp)
    80004a7c:	e8ea                	sd	s10,80(sp)
    80004a7e:	e4ee                	sd	s11,72(sp)
    80004a80:	89ae                	mv	s3,a1
    80004a82:	84b2                	mv	s1,a2
    80004a84:	8b36                	mv	s6,a3
    80004a86:	8c3a                	mv	s8,a4
    80004a88:	fffffa17          	auipc	s4,0xfffff
    80004a8c:	642a0a13          	addi	s4,s4,1602 # 800040ca <_out_null>
    80004a90:	c191                	beqz	a1,80004a94 <_vsnprintf+0x30>
    80004a92:	8a2a                	mv	s4,a0
    80004a94:	000b4503          	lbu	a0,0(s6)
    80004a98:	4b81                	li	s7,0
    80004a9a:	52050763          	beqz	a0,80004fc8 <_vsnprintf+0x564>
    80004a9e:	67c1                	lui	a5,0x10
    80004aa0:	17fd                	addi	a5,a5,-1 # ffff <_start-0x7fff0001>
    80004aa2:	6aa5                	lui	s5,0x9
    80004aa4:	f83e                	sd	a5,48(sp)
    80004aa6:	041a8793          	addi	a5,s5,65 # 9041 <_start-0x7fff6fbf>
    80004aaa:	ec3e                	sd	a5,24(sp)
    80004aac:	6785                	lui	a5,0x1
    80004aae:	80078793          	addi	a5,a5,-2048 # 800 <_start-0x7ffff800>
    80004ab2:	00001917          	auipc	s2,0x1
    80004ab6:	c3e90913          	addi	s2,s2,-962 # 800056f0 <__am_mainargs+0x23>
    80004aba:	f43e                	sd	a5,40(sp)
    80004abc:	a811                	j	80004ad0 <_vsnprintf+0x6c>
    80004abe:	865e                	mv	a2,s7
    80004ac0:	86a6                	mv	a3,s1
    80004ac2:	85ce                	mv	a1,s3
    80004ac4:	0b85                	addi	s7,s7,1
    80004ac6:	9a02                	jalr	s4
    80004ac8:	000b4503          	lbu	a0,0(s6)
    80004acc:	12050663          	beqz	a0,80004bf8 <_vsnprintf+0x194>
    80004ad0:	02500793          	li	a5,37
    80004ad4:	0b05                	addi	s6,s6,1
    80004ad6:	fef514e3          	bne	a0,a5,80004abe <_vsnprintf+0x5a>
    80004ada:	4801                	li	a6,0
    80004adc:	4741                	li	a4,16
    80004ade:	000b4503          	lbu	a0,0(s6)
    80004ae2:	001b0693          	addi	a3,s6,1
    80004ae6:	fe05079b          	addiw	a5,a0,-32
    80004aea:	0ff7f793          	zext.b	a5,a5
    80004aee:	00f76763          	bltu	a4,a5,80004afc <_vsnprintf+0x98>
    80004af2:	078a                	slli	a5,a5,0x2
    80004af4:	97ca                	add	a5,a5,s2
    80004af6:	439c                	lw	a5,0(a5)
    80004af8:	97ca                	add	a5,a5,s2
    80004afa:	8782                	jr	a5
    80004afc:	fd05079b          	addiw	a5,a0,-48
    80004b00:	0ff7f793          	zext.b	a5,a5
    80004b04:	4725                	li	a4,9
    80004b06:	14f77763          	bgeu	a4,a5,80004c54 <_vsnprintf+0x1f0>
    80004b0a:	02a00713          	li	a4,42
    80004b0e:	4a81                	li	s5,0
    80004b10:	16e50863          	beq	a0,a4,80004c80 <_vsnprintf+0x21c>
    80004b14:	02e00713          	li	a4,46
    80004b18:	4401                	li	s0,0
    80004b1a:	10e50a63          	beq	a0,a4,80004c2e <_vsnprintf+0x1ca>
    80004b1e:	f985071b          	addiw	a4,a0,-104
    80004b22:	0ff77713          	zext.b	a4,a4
    80004b26:	4649                	li	a2,18
    80004b28:	02e66063          	bltu	a2,a4,80004b48 <_vsnprintf+0xe4>
    80004b2c:	00001617          	auipc	a2,0x1
    80004b30:	c0860613          	addi	a2,a2,-1016 # 80005734 <__am_mainargs+0x67>
    80004b34:	070a                	slli	a4,a4,0x2
    80004b36:	9732                	add	a4,a4,a2
    80004b38:	4318                	lw	a4,0(a4)
    80004b3a:	9732                	add	a4,a4,a2
    80004b3c:	8702                	jr	a4
    80004b3e:	001b4503          	lbu	a0,1(s6)
    80004b42:	10086813          	ori	a6,a6,256
    80004b46:	0685                	addi	a3,a3,1
    80004b48:	06700713          	li	a4,103
    80004b4c:	8b36                	mv	s6,a3
    80004b4e:	04a76b63          	bltu	a4,a0,80004ba4 <_vsnprintf+0x140>
    80004b52:	02400713          	li	a4,36
    80004b56:	f6a774e3          	bgeu	a4,a0,80004abe <_vsnprintf+0x5a>
    80004b5a:	fdb5071b          	addiw	a4,a0,-37
    80004b5e:	0ff77713          	zext.b	a4,a4
    80004b62:	04200693          	li	a3,66
    80004b66:	f4e6ece3          	bltu	a3,a4,80004abe <_vsnprintf+0x5a>
    80004b6a:	00001697          	auipc	a3,0x1
    80004b6e:	c1668693          	addi	a3,a3,-1002 # 80005780 <__am_mainargs+0xb3>
    80004b72:	070a                	slli	a4,a4,0x2
    80004b74:	9736                	add	a4,a4,a3
    80004b76:	4318                	lw	a4,0(a4)
    80004b78:	9736                	add	a4,a4,a3
    80004b7a:	8702                	jr	a4
    80004b7c:	00186813          	ori	a6,a6,1
    80004b80:	8b36                	mv	s6,a3
    80004b82:	bfb1                	j	80004ade <_vsnprintf+0x7a>
    80004b84:	00286813          	ori	a6,a6,2
    80004b88:	8b36                	mv	s6,a3
    80004b8a:	bf91                	j	80004ade <_vsnprintf+0x7a>
    80004b8c:	00486813          	ori	a6,a6,4
    80004b90:	8b36                	mv	s6,a3
    80004b92:	b7b1                	j	80004ade <_vsnprintf+0x7a>
    80004b94:	01086813          	ori	a6,a6,16
    80004b98:	8b36                	mv	s6,a3
    80004b9a:	b791                	j	80004ade <_vsnprintf+0x7a>
    80004b9c:	00886813          	ori	a6,a6,8
    80004ba0:	8b36                	mv	s6,a3
    80004ba2:	bf35                	j	80004ade <_vsnprintf+0x7a>
    80004ba4:	f975071b          	addiw	a4,a0,-105
    80004ba8:	0ff77713          	zext.b	a4,a4
    80004bac:	46bd                	li	a3,15
    80004bae:	f0e6e8e3          	bltu	a3,a4,80004abe <_vsnprintf+0x5a>
    80004bb2:	67e2                	ld	a5,24(sp)
    80004bb4:	4685                	li	a3,1
    80004bb6:	00e696b3          	sll	a3,a3,a4
    80004bba:	8efd                	and	a3,a3,a5
    80004bbc:	32069963          	bnez	a3,80004eee <_vsnprintf+0x48a>
    80004bc0:	46a9                	li	a3,10
    80004bc2:	18d70863          	beq	a4,a3,80004d52 <_vsnprintf+0x2ee>
    80004bc6:	479d                	li	a5,7
    80004bc8:	eef71be3          	bne	a4,a5,80004abe <_vsnprintf+0x5a>
    80004bcc:	000c3703          	ld	a4,0(s8)
    80004bd0:	02186793          	ori	a5,a6,33
    80004bd4:	e43e                	sd	a5,8(sp)
    80004bd6:	47c1                	li	a5,16
    80004bd8:	865e                	mv	a2,s7
    80004bda:	e03e                	sd	a5,0(sp)
    80004bdc:	88a2                	mv	a7,s0
    80004bde:	4841                	li	a6,16
    80004be0:	4781                	li	a5,0
    80004be2:	86a6                	mv	a3,s1
    80004be4:	85ce                	mv	a1,s3
    80004be6:	8552                	mv	a0,s4
    80004be8:	da8ff0ef          	jal	ra,80004190 <_ntoa_long>
    80004bec:	8baa                	mv	s7,a0
    80004bee:	000b4503          	lbu	a0,0(s6)
    80004bf2:	0c21                	addi	s8,s8,8
    80004bf4:	ec051ee3          	bnez	a0,80004ad0 <_vsnprintf+0x6c>
    80004bf8:	000b841b          	sext.w	s0,s7
    80004bfc:	009be463          	bltu	s7,s1,80004c04 <_vsnprintf+0x1a0>
    80004c00:	fff48b93          	addi	s7,s1,-1
    80004c04:	86a6                	mv	a3,s1
    80004c06:	865e                	mv	a2,s7
    80004c08:	85ce                	mv	a1,s3
    80004c0a:	4501                	li	a0,0
    80004c0c:	9a02                	jalr	s4
    80004c0e:	70aa                	ld	ra,168(sp)
    80004c10:	8522                	mv	a0,s0
    80004c12:	740a                	ld	s0,160(sp)
    80004c14:	64ea                	ld	s1,152(sp)
    80004c16:	694a                	ld	s2,144(sp)
    80004c18:	69aa                	ld	s3,136(sp)
    80004c1a:	6a0a                	ld	s4,128(sp)
    80004c1c:	7ae6                	ld	s5,120(sp)
    80004c1e:	7b46                	ld	s6,112(sp)
    80004c20:	7ba6                	ld	s7,104(sp)
    80004c22:	7c06                	ld	s8,96(sp)
    80004c24:	6ce6                	ld	s9,88(sp)
    80004c26:	6d46                	ld	s10,80(sp)
    80004c28:	6da6                	ld	s11,72(sp)
    80004c2a:	614d                	addi	sp,sp,176
    80004c2c:	8082                	ret
    80004c2e:	001b4503          	lbu	a0,1(s6)
    80004c32:	45a5                	li	a1,9
    80004c34:	8636                	mv	a2,a3
    80004c36:	fd05071b          	addiw	a4,a0,-48
    80004c3a:	0ff77713          	zext.b	a4,a4
    80004c3e:	40086813          	ori	a6,a6,1024
    80004c42:	18e5f963          	bgeu	a1,a4,80004dd4 <_vsnprintf+0x370>
    80004c46:	02a00713          	li	a4,42
    80004c4a:	1ae50b63          	beq	a0,a4,80004e00 <_vsnprintf+0x39c>
    80004c4e:	8b36                	mv	s6,a3
    80004c50:	0685                	addi	a3,a3,1
    80004c52:	b5f1                	j	80004b1e <_vsnprintf+0xba>
    80004c54:	4a81                	li	s5,0
    80004c56:	4625                	li	a2,9
    80004c58:	002a971b          	slliw	a4,s5,0x2
    80004c5c:	0157073b          	addw	a4,a4,s5
    80004c60:	0017171b          	slliw	a4,a4,0x1
    80004c64:	9f29                	addw	a4,a4,a0
    80004c66:	0006c503          	lbu	a0,0(a3)
    80004c6a:	fd070a9b          	addiw	s5,a4,-48
    80004c6e:	8b36                	mv	s6,a3
    80004c70:	fd05071b          	addiw	a4,a0,-48
    80004c74:	0ff77713          	zext.b	a4,a4
    80004c78:	0685                	addi	a3,a3,1
    80004c7a:	fce67fe3          	bgeu	a2,a4,80004c58 <_vsnprintf+0x1f4>
    80004c7e:	bd59                	j	80004b14 <_vsnprintf+0xb0>
    80004c80:	000c2703          	lw	a4,0(s8)
    80004c84:	0c21                	addi	s8,s8,8
    80004c86:	00070a9b          	sext.w	s5,a4
    80004c8a:	00074763          	bltz	a4,80004c98 <_vsnprintf+0x234>
    80004c8e:	001b4503          	lbu	a0,1(s6)
    80004c92:	8b36                	mv	s6,a3
    80004c94:	0685                	addi	a3,a3,1
    80004c96:	bdbd                	j	80004b14 <_vsnprintf+0xb0>
    80004c98:	001b4503          	lbu	a0,1(s6)
    80004c9c:	00286813          	ori	a6,a6,2
    80004ca0:	8b36                	mv	s6,a3
    80004ca2:	40e00abb          	negw	s5,a4
    80004ca6:	0685                	addi	a3,a3,1
    80004ca8:	b5b5                	j	80004b14 <_vsnprintf+0xb0>
    80004caa:	001b4503          	lbu	a0,1(s6)
    80004cae:	06c00713          	li	a4,108
    80004cb2:	e8e518e3          	bne	a0,a4,80004b42 <_vsnprintf+0xde>
    80004cb6:	002b4503          	lbu	a0,2(s6)
    80004cba:	30086813          	ori	a6,a6,768
    80004cbe:	003b0693          	addi	a3,s6,3
    80004cc2:	b559                	j	80004b48 <_vsnprintf+0xe4>
    80004cc4:	001b4503          	lbu	a0,1(s6)
    80004cc8:	06800713          	li	a4,104
    80004ccc:	2ee50363          	beq	a0,a4,80004fb2 <_vsnprintf+0x54e>
    80004cd0:	08086813          	ori	a6,a6,128
    80004cd4:	0685                	addi	a3,a3,1
    80004cd6:	bd8d                	j	80004b48 <_vsnprintf+0xe4>
    80004cd8:	04600713          	li	a4,70
    80004cdc:	20e50663          	beq	a0,a4,80004ee8 <_vsnprintf+0x484>
    80004ce0:	000c3507          	fld	fa0,0(s8)
    80004ce4:	865e                	mv	a2,s7
    80004ce6:	87d6                	mv	a5,s5
    80004ce8:	8722                	mv	a4,s0
    80004cea:	86a6                	mv	a3,s1
    80004cec:	85ce                	mv	a1,s3
    80004cee:	8552                	mv	a0,s4
    80004cf0:	a53ff0ef          	jal	ra,80004742 <_ftoa>
    80004cf4:	0c21                	addi	s8,s8,8
    80004cf6:	8baa                	mv	s7,a0
    80004cf8:	bbc1                	j	80004ac8 <_vsnprintf+0x64>
    80004cfa:	00287413          	andi	s0,a6,2
    80004cfe:	008c0c93          	addi	s9,s8,8
    80004d02:	32040363          	beqz	s0,80005028 <_vsnprintf+0x5c4>
    80004d06:	000c4503          	lbu	a0,0(s8)
    80004d0a:	86a6                	mv	a3,s1
    80004d0c:	865e                	mv	a2,s7
    80004d0e:	85ce                	mv	a1,s3
    80004d10:	9a02                	jalr	s4
    80004d12:	4705                	li	a4,1
    80004d14:	001b8413          	addi	s0,s7,1
    80004d18:	3b577263          	bgeu	a4,s5,800050bc <_vsnprintf+0x658>
    80004d1c:	ffea879b          	addiw	a5,s5,-2
    80004d20:	1782                	slli	a5,a5,0x20
    80004d22:	002b8e13          	addi	t3,s7,2
    80004d26:	9381                	srli	a5,a5,0x20
    80004d28:	00fe0bb3          	add	s7,t3,a5
    80004d2c:	8622                	mv	a2,s0
    80004d2e:	86a6                	mv	a3,s1
    80004d30:	0405                	addi	s0,s0,1
    80004d32:	85ce                	mv	a1,s3
    80004d34:	02000513          	li	a0,32
    80004d38:	9a02                	jalr	s4
    80004d3a:	fe8b99e3          	bne	s7,s0,80004d2c <_vsnprintf+0x2c8>
    80004d3e:	8c66                	mv	s8,s9
    80004d40:	b361                	j	80004ac8 <_vsnprintf+0x64>
    80004d42:	865e                	mv	a2,s7
    80004d44:	86a6                	mv	a3,s1
    80004d46:	85ce                	mv	a1,s3
    80004d48:	02500513          	li	a0,37
    80004d4c:	0b85                	addi	s7,s7,1
    80004d4e:	9a02                	jalr	s4
    80004d50:	bba5                	j	80004ac8 <_vsnprintf+0x64>
    80004d52:	000c3d03          	ld	s10,0(s8)
    80004d56:	008c0793          	addi	a5,s8,8
    80004d5a:	fc3e                	sd	a5,56(sp)
    80004d5c:	000d4603          	lbu	a2,0(s10)
    80004d60:	8532                	mv	a0,a2
    80004d62:	ec55                	bnez	s0,80004e1e <_vsnprintf+0x3ba>
    80004d64:	5cf9                	li	s9,-2
    80004d66:	3a060563          	beqz	a2,80005110 <_vsnprintf+0x6ac>
    80004d6a:	0c85                	addi	s9,s9,1
    80004d6c:	9cea                	add	s9,s9,s10
    80004d6e:	876a                	mv	a4,s10
    80004d70:	a019                	j	80004d76 <_vsnprintf+0x312>
    80004d72:	24ec8763          	beq	s9,a4,80004fc0 <_vsnprintf+0x55c>
    80004d76:	00174683          	lbu	a3,1(a4)
    80004d7a:	0705                	addi	a4,a4,1
    80004d7c:	fafd                	bnez	a3,80004d72 <_vsnprintf+0x30e>
    80004d7e:	41a707bb          	subw	a5,a4,s10
    80004d82:	f03e                	sd	a5,32(sp)
    80004d84:	40087d93          	andi	s11,a6,1024
    80004d88:	000d8a63          	beqz	s11,80004d9c <_vsnprintf+0x338>
    80004d8c:	7782                	ld	a5,32(sp)
    80004d8e:	8722                	mv	a4,s0
    80004d90:	0087f363          	bgeu	a5,s0,80004d96 <_vsnprintf+0x332>
    80004d94:	873e                	mv	a4,a5
    80004d96:	0007079b          	sext.w	a5,a4
    80004d9a:	f03e                	sd	a5,32(sp)
    80004d9c:	00287c13          	andi	s8,a6,2
    80004da0:	220c0e63          	beqz	s8,80004fdc <_vsnprintf+0x578>
    80004da4:	1a060d63          	beqz	a2,80004f5e <_vsnprintf+0x4fa>
    80004da8:	865e                	mv	a2,s7
    80004daa:	000d8763          	beqz	s11,80004db8 <_vsnprintf+0x354>
    80004dae:	fff4071b          	addiw	a4,s0,-1
    80004db2:	1a040263          	beqz	s0,80004f56 <_vsnprintf+0x4f2>
    80004db6:	843a                	mv	s0,a4
    80004db8:	86a6                	mv	a3,s1
    80004dba:	85ce                	mv	a1,s3
    80004dbc:	00160c93          	addi	s9,a2,1
    80004dc0:	9a02                	jalr	s4
    80004dc2:	417c8733          	sub	a4,s9,s7
    80004dc6:	976a                	add	a4,a4,s10
    80004dc8:	00074503          	lbu	a0,0(a4)
    80004dcc:	18050663          	beqz	a0,80004f58 <_vsnprintf+0x4f4>
    80004dd0:	8666                	mv	a2,s9
    80004dd2:	bfe1                	j	80004daa <_vsnprintf+0x346>
    80004dd4:	46a5                	li	a3,9
    80004dd6:	0024171b          	slliw	a4,s0,0x2
    80004dda:	9f21                	addw	a4,a4,s0
    80004ddc:	0605                	addi	a2,a2,1
    80004dde:	0017171b          	slliw	a4,a4,0x1
    80004de2:	9f29                	addw	a4,a4,a0
    80004de4:	00064503          	lbu	a0,0(a2)
    80004de8:	fd07041b          	addiw	s0,a4,-48
    80004dec:	fd05071b          	addiw	a4,a0,-48
    80004df0:	0ff77713          	zext.b	a4,a4
    80004df4:	fee6f1e3          	bgeu	a3,a4,80004dd6 <_vsnprintf+0x372>
    80004df8:	8b32                	mv	s6,a2
    80004dfa:	00160693          	addi	a3,a2,1
    80004dfe:	b305                	j	80004b1e <_vsnprintf+0xba>
    80004e00:	000c2703          	lw	a4,0(s8)
    80004e04:	002b4503          	lbu	a0,2(s6)
    80004e08:	0b09                	addi	s6,s6,2
    80004e0a:	fff74893          	not	a7,a4
    80004e0e:	43f8d893          	srai	a7,a7,0x3f
    80004e12:	00e8f433          	and	s0,a7,a4
    80004e16:	0c21                	addi	s8,s8,8
    80004e18:	001b0693          	addi	a3,s6,1
    80004e1c:	b309                	j	80004b1e <_vsnprintf+0xba>
    80004e1e:	02041c93          	slli	s9,s0,0x20
    80004e22:	020cdc93          	srli	s9,s9,0x20
    80004e26:	2e060563          	beqz	a2,80005110 <_vsnprintf+0x6ac>
    80004e2a:	1cfd                	addi	s9,s9,-1
    80004e2c:	bf3d                	j	80004d6a <_vsnprintf+0x306>
    80004e2e:	0df57713          	andi	a4,a0,223
    80004e32:	04700693          	li	a3,71
    80004e36:	16d70263          	beq	a4,a3,80004f9a <_vsnprintf+0x536>
    80004e3a:	04500713          	li	a4,69
    80004e3e:	16e50763          	beq	a0,a4,80004fac <_vsnprintf+0x548>
    80004e42:	000c3507          	fld	fa0,0(s8)
    80004e46:	865e                	mv	a2,s7
    80004e48:	87d6                	mv	a5,s5
    80004e4a:	8722                	mv	a4,s0
    80004e4c:	86a6                	mv	a3,s1
    80004e4e:	85ce                	mv	a1,s3
    80004e50:	8552                	mv	a0,s4
    80004e52:	e0aff0ef          	jal	ra,8000445c <_etoa>
    80004e56:	0c21                	addi	s8,s8,8
    80004e58:	8baa                	mv	s7,a0
    80004e5a:	b1bd                	j	80004ac8 <_vsnprintf+0x64>
    80004e5c:	06200713          	li	a4,98
    80004e60:	20e50563          	beq	a0,a4,8000506a <_vsnprintf+0x606>
    80004e64:	06f00713          	li	a4,111
    80004e68:	20e50b63          	beq	a0,a4,8000507e <_vsnprintf+0x61a>
    80004e6c:	05800713          	li	a4,88
    80004e70:	16e50063          	beq	a0,a4,80004fd0 <_vsnprintf+0x56c>
    80004e74:	fef87813          	andi	a6,a6,-17
    80004e78:	46a9                	li	a3,10
    80004e7a:	40087713          	andi	a4,a6,1024
    80004e7e:	06900613          	li	a2,105
    80004e82:	85ba                	mv	a1,a4
    80004e84:	1ec51663          	bne	a0,a2,80005070 <_vsnprintf+0x60c>
    80004e88:	edad                	bnez	a1,80004f02 <_vsnprintf+0x49e>
    80004e8a:	008c0c93          	addi	s9,s8,8
    80004e8e:	20087713          	andi	a4,a6,512
    80004e92:	8642                	mv	a2,a6
    80004e94:	1e071763          	bnez	a4,80005082 <_vsnprintf+0x61e>
    80004e98:	10087713          	andi	a4,a6,256
    80004e9c:	22071c63          	bnez	a4,800050d4 <_vsnprintf+0x670>
    80004ea0:	04067713          	andi	a4,a2,64
    80004ea4:	000c2583          	lw	a1,0(s8)
    80004ea8:	20071363          	bnez	a4,800050ae <_vsnprintf+0x64a>
    80004eac:	08067613          	andi	a2,a2,128
    80004eb0:	24060a63          	beqz	a2,80005104 <_vsnprintf+0x6a0>
    80004eb4:	0105959b          	slliw	a1,a1,0x10
    80004eb8:	4105d59b          	sraiw	a1,a1,0x10
    80004ebc:	40f5d61b          	sraiw	a2,a1,0xf
    80004ec0:	00c5c733          	xor	a4,a1,a2
    80004ec4:	9f11                	subw	a4,a4,a2
    80004ec6:	1742                	slli	a4,a4,0x30
    80004ec8:	9341                	srli	a4,a4,0x30
    80004eca:	e442                	sd	a6,8(sp)
    80004ecc:	865e                	mv	a2,s7
    80004ece:	e056                	sd	s5,0(sp)
    80004ed0:	88a2                	mv	a7,s0
    80004ed2:	8836                	mv	a6,a3
    80004ed4:	01f5d79b          	srliw	a5,a1,0x1f
    80004ed8:	86a6                	mv	a3,s1
    80004eda:	85ce                	mv	a1,s3
    80004edc:	8552                	mv	a0,s4
    80004ede:	ab2ff0ef          	jal	ra,80004190 <_ntoa_long>
    80004ee2:	8baa                	mv	s7,a0
    80004ee4:	8c66                	mv	s8,s9
    80004ee6:	b6cd                	j	80004ac8 <_vsnprintf+0x64>
    80004ee8:	02086813          	ori	a6,a6,32
    80004eec:	bbd5                	j	80004ce0 <_vsnprintf+0x27c>
    80004eee:	07800713          	li	a4,120
    80004ef2:	f6e515e3          	bne	a0,a4,80004e5c <_vsnprintf+0x3f8>
    80004ef6:	46c1                	li	a3,16
    80004ef8:	40087713          	andi	a4,a6,1024
    80004efc:	ff387813          	andi	a6,a6,-13
    80004f00:	c701                	beqz	a4,80004f08 <_vsnprintf+0x4a4>
    80004f02:	ffe87813          	andi	a6,a6,-2
    80004f06:	2801                	sext.w	a6,a6
    80004f08:	06900713          	li	a4,105
    80004f0c:	008c0c93          	addi	s9,s8,8
    80004f10:	f6e50fe3          	beq	a0,a4,80004e8e <_vsnprintf+0x42a>
    80004f14:	06400713          	li	a4,100
    80004f18:	f6e50be3          	beq	a0,a4,80004e8e <_vsnprintf+0x42a>
    80004f1c:	20087713          	andi	a4,a6,512
    80004f20:	8642                	mv	a2,a6
    80004f22:	1a071063          	bnez	a4,800050c2 <_vsnprintf+0x65e>
    80004f26:	10087713          	andi	a4,a6,256
    80004f2a:	1c071463          	bnez	a4,800050f2 <_vsnprintf+0x68e>
    80004f2e:	04067713          	andi	a4,a2,64
    80004f32:	18071263          	bnez	a4,800050b6 <_vsnprintf+0x652>
    80004f36:	08067613          	andi	a2,a2,128
    80004f3a:	000c2703          	lw	a4,0(s8)
    80004f3e:	c219                	beqz	a2,80004f44 <_vsnprintf+0x4e0>
    80004f40:	77c2                	ld	a5,48(sp)
    80004f42:	8f7d                	and	a4,a4,a5
    80004f44:	1702                	slli	a4,a4,0x20
    80004f46:	e442                	sd	a6,8(sp)
    80004f48:	865e                	mv	a2,s7
    80004f4a:	e056                	sd	s5,0(sp)
    80004f4c:	88a2                	mv	a7,s0
    80004f4e:	8836                	mv	a6,a3
    80004f50:	4781                	li	a5,0
    80004f52:	9301                	srli	a4,a4,0x20
    80004f54:	b751                	j	80004ed8 <_vsnprintf+0x474>
    80004f56:	8cb2                	mv	s9,a2
    80004f58:	020c0e63          	beqz	s8,80004f94 <_vsnprintf+0x530>
    80004f5c:	8be6                	mv	s7,s9
    80004f5e:	7782                	ld	a5,32(sp)
    80004f60:	0d57f263          	bgeu	a5,s5,80005024 <_vsnprintf+0x5c0>
    80004f64:	fffa881b          	addiw	a6,s5,-1
    80004f68:	40f8083b          	subw	a6,a6,a5
    80004f6c:	1802                	slli	a6,a6,0x20
    80004f6e:	02085813          	srli	a6,a6,0x20
    80004f72:	001b8713          	addi	a4,s7,1
    80004f76:	00e80cb3          	add	s9,a6,a4
    80004f7a:	a011                	j	80004f7e <_vsnprintf+0x51a>
    80004f7c:	0705                	addi	a4,a4,1
    80004f7e:	865e                	mv	a2,s7
    80004f80:	f03a                	sd	a4,32(sp)
    80004f82:	86a6                	mv	a3,s1
    80004f84:	85ce                	mv	a1,s3
    80004f86:	02000513          	li	a0,32
    80004f8a:	8bba                	mv	s7,a4
    80004f8c:	9a02                	jalr	s4
    80004f8e:	7702                	ld	a4,32(sp)
    80004f90:	feec96e3          	bne	s9,a4,80004f7c <_vsnprintf+0x518>
    80004f94:	7c62                	ld	s8,56(sp)
    80004f96:	8be6                	mv	s7,s9
    80004f98:	be05                	j	80004ac8 <_vsnprintf+0x64>
    80004f9a:	77a2                	ld	a5,40(sp)
    80004f9c:	0fd57513          	andi	a0,a0,253
    80004fa0:	04500713          	li	a4,69
    80004fa4:	00f86833          	or	a6,a6,a5
    80004fa8:	e8e51de3          	bne	a0,a4,80004e42 <_vsnprintf+0x3de>
    80004fac:	02086813          	ori	a6,a6,32
    80004fb0:	bd49                	j	80004e42 <_vsnprintf+0x3de>
    80004fb2:	002b4503          	lbu	a0,2(s6)
    80004fb6:	0c086813          	ori	a6,a6,192
    80004fba:	003b0693          	addi	a3,s6,3
    80004fbe:	b669                	j	80004b48 <_vsnprintf+0xe4>
    80004fc0:	41ac87bb          	subw	a5,s9,s10
    80004fc4:	f03e                	sd	a5,32(sp)
    80004fc6:	bb7d                	j	80004d84 <_vsnprintf+0x320>
    80004fc8:	4401                	li	s0,0
    80004fca:	c29bede3          	bltu	s7,s1,80004c04 <_vsnprintf+0x1a0>
    80004fce:	b90d                	j	80004c00 <_vsnprintf+0x19c>
    80004fd0:	02086813          	ori	a6,a6,32
    80004fd4:	46c1                	li	a3,16
    80004fd6:	40087713          	andi	a4,a6,1024
    80004fda:	b70d                	j	80004efc <_vsnprintf+0x498>
    80004fdc:	7782                	ld	a5,32(sp)
    80004fde:	0017871b          	addiw	a4,a5,1
    80004fe2:	1357fb63          	bgeu	a5,s5,80005118 <_vsnprintf+0x6b4>
    80004fe6:	fffa871b          	addiw	a4,s5,-1
    80004fea:	40f70cbb          	subw	s9,a4,a5
    80004fee:	1c82                	slli	s9,s9,0x20
    80004ff0:	020cdc93          	srli	s9,s9,0x20
    80004ff4:	001b8713          	addi	a4,s7,1
    80004ff8:	9cba                	add	s9,s9,a4
    80004ffa:	a019                	j	80005000 <_vsnprintf+0x59c>
    80004ffc:	7702                	ld	a4,32(sp)
    80004ffe:	0705                	addi	a4,a4,1
    80005000:	865e                	mv	a2,s7
    80005002:	86a6                	mv	a3,s1
    80005004:	8bba                	mv	s7,a4
    80005006:	f03a                	sd	a4,32(sp)
    80005008:	85ce                	mv	a1,s3
    8000500a:	02000513          	li	a0,32
    8000500e:	9a02                	jalr	s4
    80005010:	ff7c96e3          	bne	s9,s7,80004ffc <_vsnprintf+0x598>
    80005014:	000d4603          	lbu	a2,0(s10)
    80005018:	001a879b          	addiw	a5,s5,1
    8000501c:	f03e                	sd	a5,32(sp)
    8000501e:	8532                	mv	a0,a2
    80005020:	d80614e3          	bnez	a2,80004da8 <_vsnprintf+0x344>
    80005024:	8cde                	mv	s9,s7
    80005026:	b7bd                	j	80004f94 <_vsnprintf+0x530>
    80005028:	4705                	li	a4,1
    8000502a:	0f577563          	bgeu	a4,s5,80005114 <_vsnprintf+0x6b0>
    8000502e:	ffea841b          	addiw	s0,s5,-2
    80005032:	1402                	slli	s0,s0,0x20
    80005034:	001b8713          	addi	a4,s7,1
    80005038:	9001                	srli	s0,s0,0x20
    8000503a:	943a                	add	s0,s0,a4
    8000503c:	a011                	j	80005040 <_vsnprintf+0x5dc>
    8000503e:	0705                	addi	a4,a4,1
    80005040:	865e                	mv	a2,s7
    80005042:	f03a                	sd	a4,32(sp)
    80005044:	86a6                	mv	a3,s1
    80005046:	85ce                	mv	a1,s3
    80005048:	02000513          	li	a0,32
    8000504c:	8bba                	mv	s7,a4
    8000504e:	9a02                	jalr	s4
    80005050:	7702                	ld	a4,32(sp)
    80005052:	fe8716e3          	bne	a4,s0,8000503e <_vsnprintf+0x5da>
    80005056:	000c4503          	lbu	a0,0(s8)
    8000505a:	86a6                	mv	a3,s1
    8000505c:	8622                	mv	a2,s0
    8000505e:	85ce                	mv	a1,s3
    80005060:	00140b93          	addi	s7,s0,1
    80005064:	9a02                	jalr	s4
    80005066:	8c66                	mv	s8,s9
    80005068:	b485                	j	80004ac8 <_vsnprintf+0x64>
    8000506a:	4689                	li	a3,2
    8000506c:	40087713          	andi	a4,a6,1024
    80005070:	06400613          	li	a2,100
    80005074:	e8c514e3          	bne	a0,a2,80004efc <_vsnprintf+0x498>
    80005078:	e00709e3          	beqz	a4,80004e8a <_vsnprintf+0x426>
    8000507c:	b559                	j	80004f02 <_vsnprintf+0x49e>
    8000507e:	46a1                	li	a3,8
    80005080:	bbed                	j	80004e7a <_vsnprintf+0x416>
    80005082:	000c3783          	ld	a5,0(s8)
    80005086:	865e                	mv	a2,s7
    80005088:	e442                	sd	a6,8(sp)
    8000508a:	43f7d713          	srai	a4,a5,0x3f
    8000508e:	00f74533          	xor	a0,a4,a5
    80005092:	e056                	sd	s5,0(sp)
    80005094:	88a2                	mv	a7,s0
    80005096:	8836                	mv	a6,a3
    80005098:	93fd                	srli	a5,a5,0x3f
    8000509a:	40e50733          	sub	a4,a0,a4
    8000509e:	86a6                	mv	a3,s1
    800050a0:	85ce                	mv	a1,s3
    800050a2:	8552                	mv	a0,s4
    800050a4:	8ecff0ef          	jal	ra,80004190 <_ntoa_long>
    800050a8:	8baa                	mv	s7,a0
    800050aa:	8c66                	mv	s8,s9
    800050ac:	bc31                	j	80004ac8 <_vsnprintf+0x64>
    800050ae:	0ff5f593          	zext.b	a1,a1
    800050b2:	872e                	mv	a4,a1
    800050b4:	bd19                	j	80004eca <_vsnprintf+0x466>
    800050b6:	000c4703          	lbu	a4,0(s8)
    800050ba:	b569                	j	80004f44 <_vsnprintf+0x4e0>
    800050bc:	8ba2                	mv	s7,s0
    800050be:	8c66                	mv	s8,s9
    800050c0:	b421                	j	80004ac8 <_vsnprintf+0x64>
    800050c2:	000c3703          	ld	a4,0(s8)
    800050c6:	865e                	mv	a2,s7
    800050c8:	e442                	sd	a6,8(sp)
    800050ca:	e056                	sd	s5,0(sp)
    800050cc:	88a2                	mv	a7,s0
    800050ce:	8836                	mv	a6,a3
    800050d0:	4781                	li	a5,0
    800050d2:	b7f1                	j	8000509e <_vsnprintf+0x63a>
    800050d4:	000c3783          	ld	a5,0(s8)
    800050d8:	865e                	mv	a2,s7
    800050da:	e442                	sd	a6,8(sp)
    800050dc:	43f7d713          	srai	a4,a5,0x3f
    800050e0:	00f74533          	xor	a0,a4,a5
    800050e4:	e056                	sd	s5,0(sp)
    800050e6:	88a2                	mv	a7,s0
    800050e8:	8836                	mv	a6,a3
    800050ea:	93fd                	srli	a5,a5,0x3f
    800050ec:	40e50733          	sub	a4,a0,a4
    800050f0:	b3e5                	j	80004ed8 <_vsnprintf+0x474>
    800050f2:	000c3703          	ld	a4,0(s8)
    800050f6:	865e                	mv	a2,s7
    800050f8:	e442                	sd	a6,8(sp)
    800050fa:	e056                	sd	s5,0(sp)
    800050fc:	88a2                	mv	a7,s0
    800050fe:	8836                	mv	a6,a3
    80005100:	4781                	li	a5,0
    80005102:	bbd9                	j	80004ed8 <_vsnprintf+0x474>
    80005104:	41f5d61b          	sraiw	a2,a1,0x1f
    80005108:	00c5c733          	xor	a4,a1,a2
    8000510c:	9f11                	subw	a4,a4,a2
    8000510e:	bb75                	j	80004eca <_vsnprintf+0x466>
    80005110:	f002                	sd	zero,32(sp)
    80005112:	b98d                	j	80004d84 <_vsnprintf+0x320>
    80005114:	845e                	mv	s0,s7
    80005116:	b781                	j	80005056 <_vsnprintf+0x5f2>
    80005118:	f03a                	sd	a4,32(sp)
    8000511a:	b711                	j	8000501e <_vsnprintf+0x5ba>

Disassembly of section .text.printf_:

000000008000511c <printf_>:
    8000511c:	711d                	addi	sp,sp,-96
    8000511e:	02810313          	addi	t1,sp,40
    80005122:	f42e                	sd	a1,40(sp)
    80005124:	f832                	sd	a2,48(sp)
    80005126:	fc36                	sd	a3,56(sp)
    80005128:	e0ba                	sd	a4,64(sp)
    8000512a:	86aa                	mv	a3,a0
    8000512c:	858a                	mv	a1,sp
    8000512e:	871a                	mv	a4,t1
    80005130:	567d                	li	a2,-1
    80005132:	00000517          	auipc	a0,0x0
    80005136:	92a50513          	addi	a0,a0,-1750 # 80004a5c <_out_char>
    8000513a:	ec06                	sd	ra,24(sp)
    8000513c:	e4be                	sd	a5,72(sp)
    8000513e:	e8c2                	sd	a6,80(sp)
    80005140:	ecc6                	sd	a7,88(sp)
    80005142:	e41a                	sd	t1,8(sp)
    80005144:	921ff0ef          	jal	ra,80004a64 <_vsnprintf>
    80005148:	60e2                	ld	ra,24(sp)
    8000514a:	6125                	addi	sp,sp,96
    8000514c:	8082                	ret

Disassembly of section .text.uptime:

000000008000514e <uptime>:
    8000514e:	1101                	addi	sp,sp,-32
    80005150:	652d                	lui	a0,0xb
    80005152:	0030                	addi	a2,sp,8
    80005154:	46a1                	li	a3,8
    80005156:	4585                	li	a1,1
    80005158:	c0350513          	addi	a0,a0,-1021 # ac03 <_start-0x7fff53fd>
    8000515c:	ec06                	sd	ra,24(sp)
    8000515e:	d7dfe0ef          	jal	ra,80003eda <_io_read>
    80005162:	60e2                	ld	ra,24(sp)
    80005164:	4532                	lw	a0,12(sp)
    80005166:	6105                	addi	sp,sp,32
    80005168:	8082                	ret
